   1               		.file	"main.c"
   2               	__SREG__ = 0x3f
   3               	__SP_H__ = 0x3e
   4               	__SP_L__ = 0x3d
   5               	__CCP__ = 0x34
   6               	__tmp_reg__ = 0
   7               	__zero_reg__ = 1
  15               	.Ltext0:
  16               	.global	isset
  18               	isset:
  19               	.LFB7:
  20               	.LM1:
  21               	.LVL0:
  22 0000 DF93      		push r29
  23 0002 CF93      		push r28
  24 0004 0F92      		push __tmp_reg__
  25 0006 CDB7      		in r28,__SP_L__
  26 0008 DEB7      		in r29,__SP_H__
  27               	/* prologue: function */
  28               	/* frame size = 1 */
  29               	/* stack size = 3 */
  30               	.L__stack_usage = 3
  31 000a 8983      		std Y+1,r24
  32               	.LM2:
  33 000c 8981      		ldd r24,Y+1
  34               	.LVL1:
  35 000e 90E0      		ldi r25,lo8(0)
  36 0010 00C0      		rjmp 2f
  37 0012 9595      	1:	asr r25
  38 0014 8795      		ror r24
  39 0016 6A95      	2:	dec r22
  40 0018 02F4      		brpl 1b
  41               	.LM3:
  42 001a 8170      		andi r24,lo8(1)
  43               	/* epilogue start */
  44 001c 0F90      		pop __tmp_reg__
  45 001e CF91      		pop r28
  46 0020 DF91      		pop r29
  47 0022 0895      		ret
  48               	.LFE7:
  50               	.global	isclear
  52               	isclear:
  53               	.LFB8:
  54               	.LM4:
  55               	.LVL2:
  56 0024 DF93      		push r29
  57 0026 CF93      		push r28
  58 0028 0F92      		push __tmp_reg__
  59 002a CDB7      		in r28,__SP_L__
  60 002c DEB7      		in r29,__SP_H__
  61               	/* prologue: function */
  62               	/* frame size = 1 */
  63               	/* stack size = 3 */
  64               	.L__stack_usage = 3
  65 002e 8983      		std Y+1,r24
  66               	.LM5:
  67 0030 2981      		ldd r18,Y+1
  68 0032 30E0      		ldi r19,lo8(0)
  69 0034 00C0      		rjmp 2f
  70 0036 3595      	1:	asr r19
  71 0038 2795      		ror r18
  72 003a 6A95      	2:	dec r22
  73 003c 02F4      		brpl 1b
  74               	.LM6:
  75 003e 81E0      		ldi r24,lo8(1)
  76               	.LVL3:
  77 0040 20FD      		sbrc r18,0
  78 0042 80E0      		ldi r24,lo8(0)
  79               	.L3:
  80               	/* epilogue start */
  81               	.LM7:
  82 0044 0F90      		pop __tmp_reg__
  83 0046 CF91      		pop r28
  84 0048 DF91      		pop r29
  85 004a 0895      		ret
  86               	.LFE8:
  88               	.global	initpwm
  90               	initpwm:
  91               	.LFB9:
  92               	.LM8:
  93               	/* prologue: function */
  94               	/* frame size = 0 */
  95               	/* stack size = 0 */
  96               	.L__stack_usage = 0
  97               	.LM9:
  98 004c 81EF      		ldi r24,lo8(-15)
  99 004e 8FBD      		out 79-32,r24
 100               	.LM10:
 101 0050 83E0      		ldi r24,lo8(3)
 102 0052 8EBD      		out 78-32,r24
 103               	/* epilogue start */
 104               	.LM11:
 105 0054 0895      		ret
 106               	.LFE9:
 108               	.global	initadc
 110               	initadc:
 111               	.LFB10:
 112               	.LM12:
 113               	/* prologue: function */
 114               	/* frame size = 0 */
 115               	/* stack size = 0 */
 116               	.L__stack_usage = 0
 117               	.LM13:
 118 0056 3E9A      		sbi 39-32,6
 119               	.LM14:
 120 0058 379A      		sbi 38-32,7
 121               	.LM15:
 122 005a 86B1      		in r24,38-32
 123 005c 8760      		ori r24,lo8(7)
 124 005e 86B9      		out 38-32,r24
 125               	/* epilogue start */
 126               	.LM16:
 127 0060 0895      		ret
 128               	.LFE10:
 130               	.global	adc_baca
 132               	adc_baca:
 133               	.LFB11:
 134               	.LM17:
 135               	.LVL4:
 136               	/* prologue: function */
 137               	/* frame size = 0 */
 138               	/* stack size = 0 */
 139               	.L__stack_usage = 0
 140               	.LM18:
 141 0062 3C98      		cbi 39-32,4
 142               	.LM19:
 143 0064 3B98      		cbi 39-32,3
 144               	.LM20:
 145 0066 3A98      		cbi 39-32,2
 146               	.LM21:
 147 0068 3998      		cbi 39-32,1
 148               	.LM22:
 149 006a 3898      		cbi 39-32,0
 150               	.LM23:
 151 006c 97B1      		in r25,39-32
 152 006e 982B      		or r25,r24
 153 0070 97B9      		out 39-32,r25
 154               	.LM24:
 155 0072 369A      		sbi 38-32,6
 156               	.L7:
 157               	.LM25:
 158 0074 3699      		sbic 38-32,6
 159 0076 00C0      		rjmp .L7
 160               	.LM26:
 161 0078 24B1      		in r18,36-32
 162 007a 35B1      		in r19,36+1-32
 163               	.LM27:
 164 007c C901      		movw r24,r18
 165               	.LVL5:
 166               	/* epilogue start */
 167 007e 0895      		ret
 168               	.LFE11:
 170               		.data
 171               	.LC0:
 172 0000 2000      		.string	" "
 173               	.LC1:
 174 0002 2564 00   		.string	"%d"
 175               		.text
 176               	.global	cetak_bil
 178               	cetak_bil:
 179               	.LFB12:
 180               	.LM28:
 181               	.LVL6:
 182 0080 CF92      		push r12
 183 0082 DF92      		push r13
 184 0084 EF92      		push r14
 185 0086 FF92      		push r15
 186 0088 0F93      		push r16
 187 008a 1F93      		push r17
 188 008c DF93      		push r29
 189 008e CF93      		push r28
 190 0090 CDB7      		in r28,__SP_L__
 191 0092 DEB7      		in r29,__SP_H__
 192 0094 6E97      		sbiw r28,30
 193 0096 0FB6      		in __tmp_reg__,__SREG__
 194 0098 F894      		cli
 195 009a DEBF      		out __SP_H__,r29
 196 009c 0FBE      		out __SREG__,__tmp_reg__
 197 009e CDBF      		out __SP_L__,r28
 198               	/* prologue: function */
 199               	/* frame size = 30 */
 200               	/* stack size = 38 */
 201               	.L__stack_usage = 38
 202 00a0 8C01      		movw r16,r24
 203 00a2 E62E      		mov r14,r22
 204 00a4 F42E      		mov r15,r20
 205 00a6 C22E      		mov r12,r18
 206               	.LM29:
 207 00a8 862F      		mov r24,r22
 208               	.LVL7:
 209 00aa 642F      		mov r22,r20
 210               	.LVL8:
 211 00ac 0E94 0000 		call LCDGotoXY
 212               	.LVL9:
 213               	.LM30:
 214 00b0 CC20      		tst r12
 215 00b2 01F0      		breq .L10
 216               	.LM31:
 217 00b4 DD24      		clr r13
 218 00b6 D394      		inc r13
 219 00b8 00C0      		rjmp .L11
 220               	.LVL10:
 221               	.L12:
 222               	.LBB293:
 223               	.LM32:
 224 00ba 80E0      		ldi r24,lo8(.LC0)
 225 00bc 90E0      		ldi r25,hi8(.LC0)
 226 00be 61E0      		ldi r22,lo8(1)
 227 00c0 0E94 0000 		call LCDstring
 228               	.LM33:
 229 00c4 D394      		inc r13
 230               	.LVL11:
 231               	.L11:
 232               	.LM34:
 233 00c6 CD14      		cp r12,r13
 234 00c8 00F4      		brsh .L12
 235               	.LBE293:
 236               	.LM35:
 237 00ca 8E2D      		mov r24,r14
 238 00cc 6F2D      		mov r22,r15
 239 00ce 0E94 0000 		call LCDGotoXY
 240               	.LVL12:
 241               	.L10:
 242               	.LM36:
 243 00d2 8DB7      		in r24,__SP_L__
 244 00d4 9EB7      		in r25,__SP_H__
 245 00d6 0897      		sbiw r24,8
 246 00d8 0FB6      		in __tmp_reg__,__SREG__
 247 00da F894      		cli
 248 00dc 9EBF      		out __SP_H__,r25
 249 00de 0FBE      		out __SREG__,__tmp_reg__
 250 00e0 8DBF      		out __SP_L__,r24
 251 00e2 EDB7      		in r30,__SP_L__
 252 00e4 FEB7      		in r31,__SP_H__
 253 00e6 3196      		adiw r30,1
 254 00e8 7E01      		movw r14,r28
 255               	.LVL13:
 256 00ea 0894      		sec
 257 00ec E11C      		adc r14,__zero_reg__
 258 00ee F11C      		adc r15,__zero_reg__
 259 00f0 ADB7      		in r26,__SP_L__
 260 00f2 BEB7      		in r27,__SP_H__
 261 00f4 1296      		adiw r26,1+1
 262 00f6 FC92      		st X,r15
 263 00f8 EE92      		st -X,r14
 264 00fa 1197      		sbiw r26,1
 265 00fc 8FE0      		ldi r24,lo8(15)
 266 00fe 90E0      		ldi r25,hi8(15)
 267 0100 9383      		std Z+3,r25
 268 0102 8283      		std Z+2,r24
 269 0104 80E0      		ldi r24,lo8(.LC1)
 270 0106 90E0      		ldi r25,hi8(.LC1)
 271 0108 9583      		std Z+5,r25
 272 010a 8483      		std Z+4,r24
 273 010c 1783      		std Z+7,r17
 274 010e 0683      		std Z+6,r16
 275 0110 0E94 0000 		call snprintf
 276               	.LM37:
 277 0114 F701      		movw r30,r14
 278 0116 0190      		ld __tmp_reg__,Z+
 279 0118 0020      		tst __tmp_reg__
 280 011a 01F4      		brne .-6
 281 011c BF01      		movw r22,r30
 282 011e 6150      		subi r22,lo8(-(-1))
 283 0120 7040      		sbci r23,hi8(-(-1))
 284 0122 6E19      		sub r22,r14
 285 0124 7F09      		sbc r23,r15
 286               	.LVL14:
 287               	.LM38:
 288 0126 8DB7      		in r24,__SP_L__
 289 0128 9EB7      		in r25,__SP_H__
 290 012a 0896      		adiw r24,8
 291 012c 0FB6      		in __tmp_reg__,__SREG__
 292 012e F894      		cli
 293 0130 9EBF      		out __SP_H__,r25
 294 0132 0FBE      		out __SREG__,__tmp_reg__
 295 0134 8DBF      		out __SP_L__,r24
 296 0136 C701      		movw r24,r14
 297 0138 0E94 0000 		call LCDstring
 298               	.LVL15:
 299               	/* epilogue start */
 300               	.LM39:
 301 013c 6E96      		adiw r28,30
 302 013e 0FB6      		in __tmp_reg__,__SREG__
 303 0140 F894      		cli
 304 0142 DEBF      		out __SP_H__,r29
 305 0144 0FBE      		out __SREG__,__tmp_reg__
 306 0146 CDBF      		out __SP_L__,r28
 307 0148 CF91      		pop r28
 308 014a DF91      		pop r29
 309 014c 1F91      		pop r17
 310 014e 0F91      		pop r16
 311               	.LVL16:
 312 0150 FF90      		pop r15
 313               	.LVL17:
 314 0152 EF90      		pop r14
 315 0154 DF90      		pop r13
 316 0156 CF90      		pop r12
 317               	.LVL18:
 318 0158 0895      		ret
 319               	.LFE12:
 321               	.global	cetak_bil_lgsg
 323               	cetak_bil_lgsg:
 324               	.LFB13:
 325               	.LM40:
 326               	.LVL19:
 327 015a EF92      		push r14
 328 015c FF92      		push r15
 329 015e 0F93      		push r16
 330 0160 1F93      		push r17
 331 0162 DF93      		push r29
 332 0164 CF93      		push r28
 333 0166 CDB7      		in r28,__SP_L__
 334 0168 DEB7      		in r29,__SP_H__
 335 016a 6E97      		sbiw r28,30
 336 016c 0FB6      		in __tmp_reg__,__SREG__
 337 016e F894      		cli
 338 0170 DEBF      		out __SP_H__,r29
 339 0172 0FBE      		out __SREG__,__tmp_reg__
 340 0174 CDBF      		out __SP_L__,r28
 341               	/* prologue: function */
 342               	/* frame size = 30 */
 343               	/* stack size = 36 */
 344               	.L__stack_usage = 36
 345 0176 8C01      		movw r16,r24
 346 0178 F62E      		mov r15,r22
 347               	.LM41:
 348 017a 6623      		tst r22
 349 017c 01F0      		breq .L14
 350               	.LVL20:
 351               	.LM42:
 352 017e EE24      		clr r14
 353 0180 E394      		inc r14
 354 0182 00C0      		rjmp .L15
 355               	.LVL21:
 356               	.L16:
 357               	.LBB294:
 358               	.LM43:
 359 0184 80E0      		ldi r24,lo8(.LC0)
 360 0186 90E0      		ldi r25,hi8(.LC0)
 361 0188 61E0      		ldi r22,lo8(1)
 362 018a 0E94 0000 		call LCDstring
 363               	.LM44:
 364 018e E394      		inc r14
 365               	.LVL22:
 366               	.L15:
 367               	.LM45:
 368 0190 FE14      		cp r15,r14
 369 0192 00F4      		brsh .L16
 370               	.LVL23:
 371               	.L14:
 372               	.LBE294:
 373               	.LM46:
 374 0194 8DB7      		in r24,__SP_L__
 375 0196 9EB7      		in r25,__SP_H__
 376 0198 0897      		sbiw r24,8
 377 019a 0FB6      		in __tmp_reg__,__SREG__
 378 019c F894      		cli
 379 019e 9EBF      		out __SP_H__,r25
 380 01a0 0FBE      		out __SREG__,__tmp_reg__
 381 01a2 8DBF      		out __SP_L__,r24
 382 01a4 EDB7      		in r30,__SP_L__
 383 01a6 FEB7      		in r31,__SP_H__
 384 01a8 3196      		adiw r30,1
 385 01aa 7E01      		movw r14,r28
 386 01ac 0894      		sec
 387 01ae E11C      		adc r14,__zero_reg__
 388 01b0 F11C      		adc r15,__zero_reg__
 389 01b2 ADB7      		in r26,__SP_L__
 390 01b4 BEB7      		in r27,__SP_H__
 391 01b6 1296      		adiw r26,1+1
 392 01b8 FC92      		st X,r15
 393 01ba EE92      		st -X,r14
 394 01bc 1197      		sbiw r26,1
 395 01be 8FE0      		ldi r24,lo8(15)
 396 01c0 90E0      		ldi r25,hi8(15)
 397 01c2 9383      		std Z+3,r25
 398 01c4 8283      		std Z+2,r24
 399 01c6 80E0      		ldi r24,lo8(.LC1)
 400 01c8 90E0      		ldi r25,hi8(.LC1)
 401 01ca 9583      		std Z+5,r25
 402 01cc 8483      		std Z+4,r24
 403 01ce 1783      		std Z+7,r17
 404 01d0 0683      		std Z+6,r16
 405 01d2 0E94 0000 		call snprintf
 406               	.LM47:
 407 01d6 F701      		movw r30,r14
 408 01d8 0190      		ld __tmp_reg__,Z+
 409 01da 0020      		tst __tmp_reg__
 410 01dc 01F4      		brne .-6
 411 01de BF01      		movw r22,r30
 412 01e0 6150      		subi r22,lo8(-(-1))
 413 01e2 7040      		sbci r23,hi8(-(-1))
 414 01e4 6E19      		sub r22,r14
 415 01e6 7F09      		sbc r23,r15
 416               	.LVL24:
 417               	.LM48:
 418 01e8 8DB7      		in r24,__SP_L__
 419 01ea 9EB7      		in r25,__SP_H__
 420 01ec 0896      		adiw r24,8
 421 01ee 0FB6      		in __tmp_reg__,__SREG__
 422 01f0 F894      		cli
 423 01f2 9EBF      		out __SP_H__,r25
 424 01f4 0FBE      		out __SREG__,__tmp_reg__
 425 01f6 8DBF      		out __SP_L__,r24
 426 01f8 C701      		movw r24,r14
 427 01fa 0E94 0000 		call LCDstring
 428               	.LVL25:
 429               	/* epilogue start */
 430               	.LM49:
 431 01fe 6E96      		adiw r28,30
 432 0200 0FB6      		in __tmp_reg__,__SREG__
 433 0202 F894      		cli
 434 0204 DEBF      		out __SP_H__,r29
 435 0206 0FBE      		out __SREG__,__tmp_reg__
 436 0208 CDBF      		out __SP_L__,r28
 437 020a CF91      		pop r28
 438 020c DF91      		pop r29
 439 020e 1F91      		pop r17
 440 0210 0F91      		pop r16
 441               	.LVL26:
 442 0212 FF90      		pop r15
 443               	.LVL27:
 444 0214 EF90      		pop r14
 445 0216 0895      		ret
 446               	.LFE13:
 448               	.global	lcdhapus
 450               	lcdhapus:
 451               	.LFB14:
 452               	.LM50:
 453               	.LVL28:
 454 0218 0F93      		push r16
 455 021a 1F93      		push r17
 456               	/* prologue: function */
 457               	/* frame size = 0 */
 458               	/* stack size = 2 */
 459               	.L__stack_usage = 2
 460 021c 082F      		mov r16,r24
 461 021e 162F      		mov r17,r22
 462               	.LM51:
 463 0220 642F      		mov r22,r20
 464               	.LVL29:
 465 0222 0E94 0000 		call LCDGotoXY
 466               	.LVL30:
 467               	.LBB295:
 468               	.LM52:
 469 0226 00C0      		rjmp .L18
 470               	.LVL31:
 471               	.L19:
 472               	.LM53:
 473 0228 80E0      		ldi r24,lo8(.LC0)
 474 022a 90E0      		ldi r25,hi8(.LC0)
 475 022c 61E0      		ldi r22,lo8(1)
 476 022e 0E94 0000 		call LCDstring
 477               	.LM54:
 478 0232 0F5F      		subi r16,lo8(-(1))
 479               	.LVL32:
 480               	.L18:
 481               	.LM55:
 482 0234 1017      		cp r17,r16
 483 0236 00F4      		brsh .L19
 484               	/* epilogue start */
 485               	.LBE295:
 486               	.LM56:
 487 0238 1F91      		pop r17
 488               	.LVL33:
 489 023a 0F91      		pop r16
 490               	.LVL34:
 491 023c 0895      		ret
 492               	.LFE14:
 494               	.global	Button0
 496               	Button0:
 497               	.LFB32:
 498               	.LM57:
 499               	/* prologue: function */
 500               	/* frame size = 0 */
 501               	/* stack size = 0 */
 502               	.L__stack_usage = 0
 503               	.LM58:
 504 023e 83B3      		in r24,51-32
 505 0240 60E0      		ldi r22,lo8(0)
 506 0242 0E94 0000 		call isclear
 507               	/* epilogue start */
 508               	.LM59:
 509 0246 0895      		ret
 510               	.LFE32:
 512               	.global	Button1
 514               	Button1:
 515               	.LFB33:
 516               	.LM60:
 517               	/* prologue: function */
 518               	/* frame size = 0 */
 519               	/* stack size = 0 */
 520               	.L__stack_usage = 0
 521               	.LM61:
 522 0248 83B3      		in r24,51-32
 523 024a 61E0      		ldi r22,lo8(1)
 524 024c 0E94 0000 		call isclear
 525               	/* epilogue start */
 526               	.LM62:
 527 0250 0895      		ret
 528               	.LFE33:
 530               	.global	Button2
 532               	Button2:
 533               	.LFB34:
 534               	.LM63:
 535               	/* prologue: function */
 536               	/* frame size = 0 */
 537               	/* stack size = 0 */
 538               	.L__stack_usage = 0
 539               	.LM64:
 540 0252 83B3      		in r24,51-32
 541 0254 62E0      		ldi r22,lo8(2)
 542 0256 0E94 0000 		call isclear
 543               	/* epilogue start */
 544               	.LM65:
 545 025a 0895      		ret
 546               	.LFE34:
 548               	.global	Button3
 550               	Button3:
 551               	.LFB35:
 552               	.LM66:
 553               	/* prologue: function */
 554               	/* frame size = 0 */
 555               	/* stack size = 0 */
 556               	.L__stack_usage = 0
 557               	.LM67:
 558 025c 83B3      		in r24,51-32
 559 025e 63E0      		ldi r22,lo8(3)
 560 0260 0E94 0000 		call isclear
 561               	/* epilogue start */
 562               	.LM68:
 563 0264 0895      		ret
 564               	.LFE35:
 566               	.global	ButtonEnter
 568               	ButtonEnter:
 569               	.LFB36:
 570               	.LM69:
 571               	/* prologue: function */
 572               	/* frame size = 0 */
 573               	/* stack size = 0 */
 574               	.L__stack_usage = 0
 575               	.LM70:
 576 0266 83B3      		in r24,51-32
 577 0268 61E0      		ldi r22,lo8(1)
 578 026a 0E94 0000 		call isclear
 579               	/* epilogue start */
 580               	.LM71:
 581 026e 0895      		ret
 582               	.LFE36:
 584               	.global	ButtonBack
 586               	ButtonBack:
 587               	.LFB37:
 588               	.LM72:
 589               	/* prologue: function */
 590               	/* frame size = 0 */
 591               	/* stack size = 0 */
 592               	.L__stack_usage = 0
 593               	.LM73:
 594 0270 83B3      		in r24,51-32
 595 0272 62E0      		ldi r22,lo8(2)
 596 0274 0E94 0000 		call isclear
 597               	/* epilogue start */
 598               	.LM74:
 599 0278 0895      		ret
 600               	.LFE37:
 602               	.global	ButtonNext
 604               	ButtonNext:
 605               	.LFB38:
 606               	.LM75:
 607               	/* prologue: function */
 608               	/* frame size = 0 */
 609               	/* stack size = 0 */
 610               	.L__stack_usage = 0
 611               	.LM76:
 612 027a 83B3      		in r24,51-32
 613 027c 63E0      		ldi r22,lo8(3)
 614 027e 0E94 0000 		call isclear
 615               	/* epilogue start */
 616               	.LM77:
 617 0282 0895      		ret
 618               	.LFE38:
 620               	.global	ButtonPrev
 622               	ButtonPrev:
 623               	.LFB39:
 624               	.LM78:
 625               	/* prologue: function */
 626               	/* frame size = 0 */
 627               	/* stack size = 0 */
 628               	.L__stack_usage = 0
 629               	.LM79:
 630 0284 83B3      		in r24,51-32
 631 0286 60E0      		ldi r22,lo8(0)
 632 0288 0E94 0000 		call isclear
 633               	/* epilogue start */
 634               	.LM80:
 635 028c 0895      		ret
 636               	.LFE39:
 638               	.global	ButtonWait
 640               	ButtonWait:
 641               	.LFB40:
 642               	.LM81:
 643               	/* prologue: function */
 644               	/* frame size = 0 */
 645               	/* stack size = 0 */
 646               	.L__stack_usage = 0
 647               	.L30:
 648               	.LM82:
 649 028e 83B3      		in r24,51-32
 650 0290 60E0      		ldi r22,lo8(0)
 651 0292 0E94 0000 		call isset
 652 0296 8823      		tst r24
 653 0298 01F0      		breq .L28
 654               	.LM83:
 655 029a 83B3      		in r24,51-32
 656 029c 61E0      		ldi r22,lo8(1)
 657 029e 0E94 0000 		call isset
 658 02a2 8823      		tst r24
 659 02a4 01F0      		breq .L28
 660               	.LM84:
 661 02a6 83B3      		in r24,51-32
 662 02a8 62E0      		ldi r22,lo8(2)
 663 02aa 0E94 0000 		call isset
 664 02ae 8823      		tst r24
 665 02b0 01F0      		breq .L28
 666 02b2 83B3      		in r24,51-32
 667 02b4 63E0      		ldi r22,lo8(3)
 668 02b6 0E94 0000 		call isset
 669 02ba 8823      		tst r24
 670 02bc 01F4      		brne .L30
 671               	.L28:
 672 02be 0895      		ret
 673               	.LFE40:
 675               	.global	ButtonIsPressed
 677               	ButtonIsPressed:
 678               	.LFB41:
 679               	.LM85:
 680               	/* prologue: function */
 681               	/* frame size = 0 */
 682               	/* stack size = 0 */
 683               	.L__stack_usage = 0
 684               	.LM86:
 685 02c0 83B3      		in r24,51-32
 686 02c2 60E0      		ldi r22,lo8(0)
 687 02c4 0E94 0000 		call isclear
 688 02c8 8823      		tst r24
 689 02ca 01F4      		brne .L37
 690               	.LM87:
 691 02cc 83B3      		in r24,51-32
 692 02ce 61E0      		ldi r22,lo8(1)
 693 02d0 0E94 0000 		call isclear
 694 02d4 8823      		tst r24
 695 02d6 01F4      		brne .L37
 696               	.LM88:
 697 02d8 83B3      		in r24,51-32
 698 02da 62E0      		ldi r22,lo8(2)
 699 02dc 0E94 0000 		call isclear
 700 02e0 8823      		tst r24
 701 02e2 01F4      		brne .L37
 702 02e4 83B3      		in r24,51-32
 703 02e6 63E0      		ldi r22,lo8(3)
 704 02e8 0E94 0000 		call isclear
 705 02ec 21E0      		ldi r18,lo8(1)
 706 02ee 30E0      		ldi r19,hi8(1)
 707 02f0 8823      		tst r24
 708 02f2 01F4      		brne .L33
 709 02f4 20E0      		ldi r18,lo8(0)
 710 02f6 30E0      		ldi r19,hi8(0)
 711 02f8 00C0      		rjmp .L33
 712               	.L37:
 713               	.LM89:
 714 02fa 21E0      		ldi r18,lo8(1)
 715 02fc 30E0      		ldi r19,hi8(1)
 716               	.L33:
 717               	.LM90:
 718 02fe 822F      		mov r24,r18
 719               	/* epilogue start */
 720 0300 0895      		ret
 721               	.LFE41:
 723               	.global	ButtonIsNotPressed
 725               	ButtonIsNotPressed:
 726               	.LFB42:
 727               	.LM91:
 728               	/* prologue: function */
 729               	/* frame size = 0 */
 730               	/* stack size = 0 */
 731               	.L__stack_usage = 0
 732               	.LM92:
 733 0302 83B3      		in r24,51-32
 734 0304 60E0      		ldi r22,lo8(0)
 735 0306 0E94 0000 		call isset
 736 030a 8823      		tst r24
 737 030c 01F0      		breq .L42
 738               	.LM93:
 739 030e 83B3      		in r24,51-32
 740 0310 61E0      		ldi r22,lo8(1)
 741 0312 0E94 0000 		call isset
 742 0316 8823      		tst r24
 743 0318 01F0      		breq .L42
 744 031a 83B3      		in r24,51-32
 745 031c 62E0      		ldi r22,lo8(2)
 746 031e 0E94 0000 		call isset
 747 0322 8823      		tst r24
 748 0324 01F0      		breq .L43
 749 0326 83B3      		in r24,51-32
 750 0328 63E0      		ldi r22,lo8(3)
 751 032a 0E94 0000 		call isset
 752               	.LM94:
 753 032e 21E0      		ldi r18,lo8(1)
 754 0330 30E0      		ldi r19,hi8(1)
 755 0332 8823      		tst r24
 756 0334 01F4      		brne .L40
 757 0336 20E0      		ldi r18,lo8(0)
 758 0338 30E0      		ldi r19,hi8(0)
 759               	.L40:
 760               	.LM95:
 761 033a C901      		movw r24,r18
 762 033c 0895      		ret
 763               	.L42:
 764               	.LM96:
 765 033e 80E0      		ldi r24,lo8(0)
 766 0340 90E0      		ldi r25,hi8(0)
 767 0342 0895      		ret
 768               	.L43:
 769 0344 80E0      		ldi r24,lo8(0)
 770 0346 90E0      		ldi r25,hi8(0)
 771               	.LM97:
 772 0348 0895      		ret
 773               	.LFE42:
 775               	.global	ButtonRead
 777               	ButtonRead:
 778               	.LFB43:
 779               	.LM98:
 780               	/* prologue: function */
 781               	/* frame size = 0 */
 782               	/* stack size = 0 */
 783               	.L__stack_usage = 0
 784               	.LM99:
 785 034a 0E94 0000 		call ButtonWait
 786               	.LM100:
 787 034e 83B3      		in r24,51-32
 788 0350 60E0      		ldi r22,lo8(0)
 789 0352 0E94 0000 		call isclear
 790 0356 8823      		tst r24
 791 0358 01F4      		brne .L46
 792               	.LM101:
 793 035a 83B3      		in r24,51-32
 794 035c 61E0      		ldi r22,lo8(1)
 795 035e 0E94 0000 		call isclear
 796 0362 8823      		tst r24
 797 0364 01F4      		brne .L47
 798               	.LM102:
 799 0366 83B3      		in r24,51-32
 800 0368 62E0      		ldi r22,lo8(2)
 801 036a 0E94 0000 		call isclear
 802 036e 8823      		tst r24
 803 0370 01F0      		breq .L48
 804               	.LM103:
 805 0372 82E0      		ldi r24,lo8(2)
 806 0374 00C0      		rjmp .L45
 807               	.L46:
 808               	.LM104:
 809 0376 80E0      		ldi r24,lo8(0)
 810 0378 00C0      		rjmp .L45
 811               	.L47:
 812               	.LM105:
 813 037a 81E0      		ldi r24,lo8(1)
 814 037c 00C0      		rjmp .L45
 815               	.L48:
 816               	.LM106:
 817 037e 83E0      		ldi r24,lo8(3)
 818               	.L45:
 819               	.LVL35:
 820               	.LBB296:
 821               	.LBB297:
 822               	.LM107:
 823 0380 2FE7      		 ldi r18,lo8(239999)
 824 0382 39EA      	    ldi r19,hi8(239999)
 825 0384 43E0      	    ldi r20,hlo8(239999)
 826 0386 2150      	    1:subi r18,1
 827 0388 3040      	    sbci r19,0
 828 038a 4040      	    sbci r20,0
 829 038c 01F4      	    brne 1b
 830 038e 00C0      		rjmp .
 831 0390 0000      		nop
 832               	/* epilogue start */
 833               	.LBE297:
 834               	.LBE296:
 835               	.LM108:
 836 0392 0895      		ret
 837               	.LFE43:
 839               		.data
 840               	.LC2:
 841 0005 3C3C 2D23 		.string	"<<-####||####+>>"
 841      2323 237C 
 841      7C23 2323 
 841      232B 3E3E 
 841      00
 842               		.text
 843               	.global	SettingDebugPrintlog2
 845               	SettingDebugPrintlog2:
 846               	.LFB26:
 847               	.LM109:
 848               	.LVL36:
 849 0394 BF92      		push r11
 850 0396 CF92      		push r12
 851 0398 DF92      		push r13
 852 039a EF92      		push r14
 853 039c FF92      		push r15
 854 039e 0F93      		push r16
 855 03a0 1F93      		push r17
 856 03a2 CF93      		push r28
 857 03a4 DF93      		push r29
 858               	/* prologue: function */
 859               	/* frame size = 0 */
 860               	/* stack size = 9 */
 861               	.L__stack_usage = 9
 862 03a6 6C01      		movw r12,r24
 863 03a8 7B01      		movw r14,r22
 864               	.LVL37:
 865               	.LM110:
 866 03aa BB24      		clr r11
 867               	.LM111:
 868 03ac 0DE3      		ldi r16,lo8(61)
 869 03ae 10E0      		ldi r17,hi8(61)
 870               	.LM112:
 871 03b0 00C0      		rjmp .L58
 872               	.LVL38:
 873               	.L55:
 874               	.LM113:
 875 03b2 80E0      		ldi r24,lo8(0)
 876 03b4 60E0      		ldi r22,lo8(0)
 877 03b6 0E94 0000 		call LCDGotoXY
 878               	.LM114:
 879 03ba C601      		movw r24,r12
 880 03bc 60E1      		ldi r22,lo8(16)
 881 03be 0E94 0000 		call LCDstring
 882               	.LM115:
 883 03c2 80E0      		ldi r24,lo8(0)
 884 03c4 61E0      		ldi r22,lo8(1)
 885 03c6 0E94 0000 		call LCDGotoXY
 886               	.LM116:
 887 03ca 80E0      		ldi r24,lo8(.LC2)
 888 03cc 90E0      		ldi r25,hi8(.LC2)
 889 03ce 60E1      		ldi r22,lo8(16)
 890 03d0 0E94 0000 		call LCDstring
 891               	.LM117:
 892 03d4 CB2D      		mov r28,r11
 893 03d6 D0E0      		ldi r29,lo8(0)
 894 03d8 CC0F      		lsl r28
 895 03da DD1F      		rol r29
 896 03dc CE0D      		add r28,r14
 897 03de DF1D      		adc r29,r15
 898 03e0 8881      		ld r24,Y
 899 03e2 9927      		clr r25
 900 03e4 87FD      		sbrc r24,7
 901 03e6 9095      		com r25
 902 03e8 63E0      		ldi r22,lo8(3)
 903 03ea 41E0      		ldi r20,lo8(1)
 904 03ec 24E0      		ldi r18,lo8(4)
 905 03ee 0E94 0000 		call cetak_bil
 906               	.LM118:
 907 03f2 8981      		ldd r24,Y+1
 908 03f4 9927      		clr r25
 909 03f6 87FD      		sbrc r24,7
 910 03f8 9095      		com r25
 911 03fa 69E0      		ldi r22,lo8(9)
 912 03fc 41E0      		ldi r20,lo8(1)
 913 03fe 24E0      		ldi r18,lo8(4)
 914 0400 0E94 0000 		call cetak_bil
 915               	.LM119:
 916 0404 0E94 0000 		call ButtonRead
 917               	.LVL39:
 918               	.LM120:
 919 0408 8330      		cpi r24,lo8(3)
 920 040a 01F4      		brne .L51
 921               	.LM121:
 922 040c B394      		inc r11
 923               	.LVL40:
 924 040e 00C0      		rjmp .L58
 925               	.L51:
 926               	.LM122:
 927 0410 8823      		tst r24
 928 0412 01F4      		brne .L53
 929               	.LM123:
 930 0414 BA94      		dec r11
 931               	.LVL41:
 932 0416 00C0      		rjmp .L58
 933               	.L53:
 934               	.LM124:
 935 0418 8230      		cpi r24,lo8(2)
 936 041a 01F0      		breq .L59
 937               	.L54:
 938               	.LM125:
 939 041c 8130      		cpi r24,lo8(1)
 940 041e 01F4      		brne .L58
 941               	.L59:
 942               	.LVL42:
 943               	.LM126:
 944 0420 1093 0000 		sts gState+1,r17
 945 0424 0093 0000 		sts gState,r16
 946               	.LVL43:
 947               	.L58:
 948               	.LM127:
 949 0428 8091 0000 		lds r24,gState
 950 042c 9091 0000 		lds r25,gState+1
 951 0430 22E0      		ldi r18,hi8(614)
 952 0432 8636      		cpi r24,lo8(614)
 953 0434 9207      		cpc r25,r18
 954 0436 01F4      		brne .+2
 955 0438 00C0      		rjmp .L55
 956               	/* epilogue start */
 957               	.LM128:
 958 043a DF91      		pop r29
 959 043c CF91      		pop r28
 960 043e 1F91      		pop r17
 961 0440 0F91      		pop r16
 962 0442 FF90      		pop r15
 963 0444 EF90      		pop r14
 964               	.LVL44:
 965 0446 DF90      		pop r13
 966 0448 CF90      		pop r12
 967               	.LVL45:
 968 044a BF90      		pop r11
 969               	.LVL46:
 970 044c 0895      		ret
 971               	.LFE26:
 973               		.data
 974               	.LC3:
 975 0016 3C3C 2D20 		.string	"<<-   ####   +>>"
 975      2020 2323 
 975      2323 2020 
 975      202B 3E3E 
 975      00
 976               		.text
 977               	.global	SettingDebugPrintlog
 979               	SettingDebugPrintlog:
 980               	.LFB25:
 981               	.LM129:
 982               	.LVL47:
 983 044e DF92      		push r13
 984 0450 EF92      		push r14
 985 0452 FF92      		push r15
 986 0454 0F93      		push r16
 987 0456 1F93      		push r17
 988 0458 CF93      		push r28
 989 045a DF93      		push r29
 990               	/* prologue: function */
 991               	/* frame size = 0 */
 992               	/* stack size = 7 */
 993               	.L__stack_usage = 7
 994 045c 7C01      		movw r14,r24
 995 045e 8B01      		movw r16,r22
 996               	.LVL48:
 997               	.LM130:
 998 0460 DD24      		clr r13
 999               	.LM131:
 1000 0462 CDE3      		ldi r28,lo8(61)
 1001 0464 D0E0      		ldi r29,hi8(61)
 1002               	.LM132:
 1003 0466 00C0      		rjmp .L69
 1004               	.LVL49:
 1005               	.L66:
 1006               	.LM133:
 1007 0468 80E0      		ldi r24,lo8(0)
 1008 046a 60E0      		ldi r22,lo8(0)
 1009 046c 0E94 0000 		call LCDGotoXY
 1010               	.LM134:
 1011 0470 C701      		movw r24,r14
 1012 0472 60E1      		ldi r22,lo8(16)
 1013 0474 0E94 0000 		call LCDstring
 1014               	.LM135:
 1015 0478 80E0      		ldi r24,lo8(0)
 1016 047a 61E0      		ldi r22,lo8(1)
 1017 047c 0E94 0000 		call LCDGotoXY
 1018               	.LM136:
 1019 0480 80E0      		ldi r24,lo8(.LC3)
 1020 0482 90E0      		ldi r25,hi8(.LC3)
 1021 0484 60E1      		ldi r22,lo8(16)
 1022 0486 0E94 0000 		call LCDstring
 1023               	.LM137:
 1024 048a F801      		movw r30,r16
 1025 048c ED0D      		add r30,r13
 1026 048e F11D      		adc r31,__zero_reg__
 1027 0490 8081      		ld r24,Z
 1028 0492 9927      		clr r25
 1029 0494 87FD      		sbrc r24,7
 1030 0496 9095      		com r25
 1031 0498 66E0      		ldi r22,lo8(6)
 1032 049a 41E0      		ldi r20,lo8(1)
 1033 049c 24E0      		ldi r18,lo8(4)
 1034 049e 0E94 0000 		call cetak_bil
 1035               	.LM138:
 1036 04a2 0E94 0000 		call ButtonRead
 1037               	.LVL50:
 1038               	.LM139:
 1039 04a6 8330      		cpi r24,lo8(3)
 1040 04a8 01F4      		brne .L62
 1041               	.LM140:
 1042 04aa D394      		inc r13
 1043               	.LVL51:
 1044 04ac 00C0      		rjmp .L69
 1045               	.L62:
 1046               	.LM141:
 1047 04ae 8823      		tst r24
 1048 04b0 01F4      		brne .L64
 1049               	.LM142:
 1050 04b2 DA94      		dec r13
 1051               	.LVL52:
 1052 04b4 00C0      		rjmp .L69
 1053               	.L64:
 1054               	.LM143:
 1055 04b6 8230      		cpi r24,lo8(2)
 1056 04b8 01F0      		breq .L70
 1057               	.L65:
 1058               	.LM144:
 1059 04ba 8130      		cpi r24,lo8(1)
 1060 04bc 01F4      		brne .L69
 1061               	.L70:
 1062               	.LVL53:
 1063               	.LM145:
 1064 04be D093 0000 		sts gState+1,r29
 1065 04c2 C093 0000 		sts gState,r28
 1066               	.LVL54:
 1067               	.L69:
 1068               	.LM146:
 1069 04c6 8091 0000 		lds r24,gState
 1070 04ca 9091 0000 		lds r25,gState+1
 1071 04ce 22E0      		ldi r18,hi8(614)
 1072 04d0 8636      		cpi r24,lo8(614)
 1073 04d2 9207      		cpc r25,r18
 1074 04d4 01F0      		breq .L66
 1075               	/* epilogue start */
 1076               	.LM147:
 1077 04d6 DF91      		pop r29
 1078 04d8 CF91      		pop r28
 1079 04da 1F91      		pop r17
 1080 04dc 0F91      		pop r16
 1081               	.LVL55:
 1082 04de FF90      		pop r15
 1083 04e0 EF90      		pop r14
 1084               	.LVL56:
 1085 04e2 DF90      		pop r13
 1086               	.LVL57:
 1087 04e4 0895      		ret
 1088               	.LFE25:
 1090               	.global	SensorReadAnalog
 1092               	SensorReadAnalog:
 1093               	.LFB44:
 1094               	.LM148:
 1095 04e6 CF93      		push r28
 1096 04e8 DF93      		push r29
 1097               	/* prologue: function */
 1098               	/* frame size = 0 */
 1099               	/* stack size = 2 */
 1100               	.L__stack_usage = 2
 1101               	.LM149:
 1102 04ea 80E0      		ldi r24,lo8(0)
 1103 04ec 0E94 0000 		call adc_baca
 1104 04f0 9093 0000 		sts gSensAnalog+32+1,r25
 1105 04f4 8093 0000 		sts gSensAnalog+32,r24
 1106               	.LM150:
 1107 04f8 81E0      		ldi r24,lo8(1)
 1108 04fa 0E94 0000 		call adc_baca
 1109 04fe 9093 0000 		sts gSensAnalog+34+1,r25
 1110 0502 8093 0000 		sts gSensAnalog+34,r24
 1111               	.LM151:
 1112 0506 82E0      		ldi r24,lo8(2)
 1113 0508 0E94 0000 		call adc_baca
 1114 050c 9093 0000 		sts gSensAnalog+36+1,r25
 1115 0510 8093 0000 		sts gSensAnalog+36,r24
 1116               	.LM152:
 1117 0514 8BB3      		in r24,59-32
 1118 0516 877C      		andi r24,lo8(-57)
 1119 0518 8BBB      		out 59-32,r24
 1120               	.LM153:
 1121 051a 87E0      		ldi r24,lo8(7)
 1122 051c 0E94 0000 		call adc_baca
 1123 0520 9093 0000 		sts gSensAnalog+12+1,r25
 1124 0524 8093 0000 		sts gSensAnalog+12,r24
 1125               	.LM154:
 1126 0528 86E0      		ldi r24,lo8(6)
 1127 052a 0E94 0000 		call adc_baca
 1128 052e 9093 0000 		sts gSensAnalog+20+1,r25
 1129 0532 8093 0000 		sts gSensAnalog+20,r24
 1130               	.LM155:
 1131 0536 8BB3      		in r24,59-32
 1132 0538 877C      		andi r24,lo8(-57)
 1133 053a 8860      		ori r24,lo8(8)
 1134 053c 8BBB      		out 59-32,r24
 1135               	.LM156:
 1136 053e 87E0      		ldi r24,lo8(7)
 1137 0540 0E94 0000 		call adc_baca
 1138 0544 9093 0000 		sts gSensAnalog+6+1,r25
 1139 0548 8093 0000 		sts gSensAnalog+6,r24
 1140               	.LM157:
 1141 054c 86E0      		ldi r24,lo8(6)
 1142 054e 0E94 0000 		call adc_baca
 1143 0552 9093 0000 		sts gSensAnalog+30+1,r25
 1144 0556 8093 0000 		sts gSensAnalog+30,r24
 1145               	.LM158:
 1146 055a 8BB3      		in r24,59-32
 1147 055c 877C      		andi r24,lo8(-57)
 1148 055e 8061      		ori r24,lo8(16)
 1149 0560 8BBB      		out 59-32,r24
 1150               	.LM159:
 1151 0562 87E0      		ldi r24,lo8(7)
 1152 0564 0E94 0000 		call adc_baca
 1153 0568 9093 0000 		sts gSensAnalog+8+1,r25
 1154 056c 8093 0000 		sts gSensAnalog+8,r24
 1155               	.LM160:
 1156 0570 86E0      		ldi r24,lo8(6)
 1157 0572 0E94 0000 		call adc_baca
 1158 0576 9093 0000 		sts gSensAnalog+16+1,r25
 1159 057a 8093 0000 		sts gSensAnalog+16,r24
 1160               	.LM161:
 1161 057e 8BB3      		in r24,59-32
 1162 0580 877C      		andi r24,lo8(-57)
 1163 0582 8861      		ori r24,lo8(24)
 1164 0584 8BBB      		out 59-32,r24
 1165               	.LM162:
 1166 0586 87E0      		ldi r24,lo8(7)
 1167 0588 0E94 0000 		call adc_baca
 1168 058c 9093 0000 		sts gSensAnalog+4+1,r25
 1169 0590 8093 0000 		sts gSensAnalog+4,r24
 1170               	.LM163:
 1171 0594 86E0      		ldi r24,lo8(6)
 1172 0596 0E94 0000 		call adc_baca
 1173 059a 9093 0000 		sts gSensAnalog+28+1,r25
 1174 059e 8093 0000 		sts gSensAnalog+28,r24
 1175               	.LM164:
 1176 05a2 8BB3      		in r24,59-32
 1177 05a4 877C      		andi r24,lo8(-57)
 1178 05a6 8062      		ori r24,lo8(32)
 1179 05a8 8BBB      		out 59-32,r24
 1180               	.LM165:
 1181 05aa 87E0      		ldi r24,lo8(7)
 1182 05ac 0E94 0000 		call adc_baca
 1183 05b0 9093 0000 		sts gSensAnalog+10+1,r25
 1184 05b4 8093 0000 		sts gSensAnalog+10,r24
 1185               	.LM166:
 1186 05b8 86E0      		ldi r24,lo8(6)
 1187 05ba 0E94 0000 		call adc_baca
 1188 05be 9093 0000 		sts gSensAnalog+18+1,r25
 1189 05c2 8093 0000 		sts gSensAnalog+18,r24
 1190               	.LM167:
 1191 05c6 8BB3      		in r24,59-32
 1192 05c8 877C      		andi r24,lo8(-57)
 1193 05ca 8862      		ori r24,lo8(40)
 1194 05cc 8BBB      		out 59-32,r24
 1195               	.LM168:
 1196 05ce 87E0      		ldi r24,lo8(7)
 1197 05d0 0E94 0000 		call adc_baca
 1198 05d4 C0E0      		ldi r28,lo8(gSensAnalog)
 1199 05d6 D0E0      		ldi r29,hi8(gSensAnalog)
 1200 05d8 9983      		std Y+1,r25
 1201 05da 8883      		st Y,r24
 1202               	.LM169:
 1203 05dc 86E0      		ldi r24,lo8(6)
 1204 05de 0E94 0000 		call adc_baca
 1205 05e2 998F      		std Y+25,r25
 1206 05e4 888F      		std Y+24,r24
 1207               	.LM170:
 1208 05e6 8BB3      		in r24,59-32
 1209 05e8 877C      		andi r24,lo8(-57)
 1210 05ea 8063      		ori r24,lo8(48)
 1211 05ec 8BBB      		out 59-32,r24
 1212               	.LM171:
 1213 05ee 87E0      		ldi r24,lo8(7)
 1214 05f0 0E94 0000 		call adc_baca
 1215 05f4 9F87      		std Y+15,r25
 1216 05f6 8E87      		std Y+14,r24
 1217               	.LM172:
 1218 05f8 86E0      		ldi r24,lo8(6)
 1219 05fa 0E94 0000 		call adc_baca
 1220 05fe 9F8B      		std Y+23,r25
 1221 0600 8E8B      		std Y+22,r24
 1222               	.LM173:
 1223 0602 8BB3      		in r24,59-32
 1224 0604 8863      		ori r24,lo8(56)
 1225 0606 8BBB      		out 59-32,r24
 1226               	.LM174:
 1227 0608 87E0      		ldi r24,lo8(7)
 1228 060a 0E94 0000 		call adc_baca
 1229 060e 9B83      		std Y+3,r25
 1230 0610 8A83      		std Y+2,r24
 1231               	.LM175:
 1232 0612 86E0      		ldi r24,lo8(6)
 1233 0614 0E94 0000 		call adc_baca
 1234 0618 9B8F      		std Y+27,r25
 1235 061a 8A8F      		std Y+26,r24
 1236               	/* epilogue start */
 1237               	.LM176:
 1238 061c DF91      		pop r29
 1239 061e CF91      		pop r28
 1240 0620 0895      		ret
 1241               	.LFE44:
 1243               	.global	SensorReadDigital
 1245               	SensorReadDigital:
 1246               	.LFB45:
 1247               	.LM177:
 1248 0622 0F93      		push r16
 1249 0624 1F93      		push r17
 1250 0626 CF93      		push r28
 1251 0628 DF93      		push r29
 1252               	/* prologue: function */
 1253               	/* frame size = 0 */
 1254               	/* stack size = 4 */
 1255               	.L__stack_usage = 4
 1256               	.LM178:
 1257 062a 1092 0000 		sts gSensH,__zero_reg__
 1258               	.LM179:
 1259 062e 1092 0000 		sts gSensL,__zero_reg__
 1260               	.LM180:
 1261 0632 1092 0000 		sts gSensA,__zero_reg__
 1262               	.LM181:
 1263 0636 0E94 0000 		call SensorReadAnalog
 1264               	.LM182:
 1265 063a 2091 0000 		lds r18,gSensAnalog+32
 1266 063e 3091 0000 		lds r19,gSensAnalog+32+1
 1267 0642 8091 0000 		lds r24,gSensRef+32
 1268 0646 9091 0000 		lds r25,gSensRef+32+1
 1269 064a 8217      		cp r24,r18
 1270 064c 9307      		cpc r25,r19
 1271 064e 00F4      		brsh .L73
 1272               	.LM183:
 1273 0650 8091 0000 		lds r24,gSensA
 1274 0654 8160      		ori r24,lo8(1)
 1275 0656 8093 0000 		sts gSensA,r24
 1276               	.L73:
 1277               	.LM184:
 1278 065a 2091 0000 		lds r18,gSensAnalog+34
 1279 065e 3091 0000 		lds r19,gSensAnalog+34+1
 1280 0662 8091 0000 		lds r24,gSensRef+34
 1281 0666 9091 0000 		lds r25,gSensRef+34+1
 1282 066a 8217      		cp r24,r18
 1283 066c 9307      		cpc r25,r19
 1284 066e 00F4      		brsh .L74
 1285               	.LM185:
 1286 0670 8091 0000 		lds r24,gSensA
 1287 0674 8260      		ori r24,lo8(2)
 1288 0676 8093 0000 		sts gSensA,r24
 1289               	.L74:
 1290               	.LM186:
 1291 067a 2091 0000 		lds r18,gSensAnalog+36
 1292 067e 3091 0000 		lds r19,gSensAnalog+36+1
 1293 0682 8091 0000 		lds r24,gSensRef+36
 1294 0686 9091 0000 		lds r25,gSensRef+36+1
 1295 068a 8217      		cp r24,r18
 1296 068c 9307      		cpc r25,r19
 1297 068e 00F4      		brsh .L75
 1298               	.LM187:
 1299 0690 8091 0000 		lds r24,gSensA
 1300 0694 8460      		ori r24,lo8(4)
 1301 0696 8093 0000 		sts gSensA,r24
 1302               	.L75:
 1303               	.LVL58:
 1304 069a 0091 0000 		lds r16,gSensL
 1305 069e 1091 0000 		lds r17,gSensH
 1306 06a2 A0E0      		ldi r26,lo8(gSensAnalog)
 1307 06a4 B0E0      		ldi r27,hi8(gSensAnalog)
 1308 06a6 E0E0      		ldi r30,lo8(gSensRef)
 1309 06a8 F0E0      		ldi r31,hi8(gSensRef)
 1310               	.LM188:
 1311 06aa 80E0      		ldi r24,lo8(0)
 1312 06ac 90E0      		ldi r25,hi8(0)
 1313               	.LM189:
 1314 06ae 21E0      		ldi r18,lo8(1)
 1315 06b0 30E0      		ldi r19,hi8(1)
 1316               	.LVL59:
 1317               	.L78:
 1318               	.LM190:
 1319 06b2 482F      		mov r20,r24
 1320               	.LM191:
 1321 06b4 CD91      		ld r28,X+
 1322 06b6 DD91      		ld r29,X+
 1323 06b8 6191      		ld r22,Z+
 1324 06ba 7191      		ld r23,Z+
 1325 06bc 6C17      		cp r22,r28
 1326 06be 7D07      		cpc r23,r29
 1327 06c0 00F4      		brsh .L76
 1328               	.LM192:
 1329 06c2 B901      		movw r22,r18
 1330 06c4 082E      		mov r0,r24
 1331 06c6 00C0      		rjmp 2f
 1332 06c8 660F      	1:	lsl r22
 1333 06ca 771F      		rol r23
 1334 06cc 0A94      	2:	dec r0
 1335 06ce 02F4      		brpl 1b
 1336 06d0 062B      		or r16,r22
 1337               	.L76:
 1338               	.LM193:
 1339 06d2 1E96      		adiw r26,14
 1340 06d4 CD91      		ld r28,X+
 1341 06d6 DC91      		ld r29,X
 1342 06d8 1F97      		sbiw r26,14+1
 1343 06da 6685      		ldd r22,Z+14
 1344 06dc 7785      		ldd r23,Z+15
 1345 06de 6C17      		cp r22,r28
 1346 06e0 7D07      		cpc r23,r29
 1347 06e2 00F4      		brsh .L77
 1348               	.LM194:
 1349 06e4 B901      		movw r22,r18
 1350 06e6 00C0      		rjmp 2f
 1351 06e8 660F      	1:	lsl r22
 1352 06ea 771F      		rol r23
 1353 06ec 4A95      	2:	dec r20
 1354 06ee 02F4      		brpl 1b
 1355 06f0 162B      		or r17,r22
 1356               	.L77:
 1357 06f2 0196      		adiw r24,1
 1358               	.LM195:
 1359 06f4 8830      		cpi r24,8
 1360 06f6 9105      		cpc r25,__zero_reg__
 1361 06f8 01F4      		brne .L78
 1362 06fa 0093 0000 		sts gSensL,r16
 1363 06fe 1093 0000 		sts gSensH,r17
 1364               	/* epilogue start */
 1365               	.LM196:
 1366 0702 DF91      		pop r29
 1367 0704 CF91      		pop r28
 1368 0706 1F91      		pop r17
 1369 0708 0F91      		pop r16
 1370 070a 0895      		ret
 1371               	.LFE45:
 1373               	.global	SensorCalibrate
 1375               	SensorCalibrate:
 1376               	.LFB47:
 1377               	.LM197:
 1378 070c 2F92      		push r2
 1379 070e 3F92      		push r3
 1380 0710 4F92      		push r4
 1381 0712 5F92      		push r5
 1382 0714 6F92      		push r6
 1383 0716 7F92      		push r7
 1384 0718 8F92      		push r8
 1385 071a 9F92      		push r9
 1386 071c AF92      		push r10
 1387 071e BF92      		push r11
 1388 0720 CF92      		push r12
 1389 0722 DF92      		push r13
 1390 0724 EF92      		push r14
 1391 0726 FF92      		push r15
 1392 0728 0F93      		push r16
 1393 072a 1F93      		push r17
 1394 072c DF93      		push r29
 1395 072e CF93      		push r28
 1396 0730 CDB7      		in r28,__SP_L__
 1397 0732 DEB7      		in r29,__SP_H__
 1398 0734 CC54      		subi r28,lo8(-(-76))
 1399 0736 D040      		sbci r29,hi8(-(-76))
 1400 0738 0FB6      		in __tmp_reg__,__SREG__
 1401 073a F894      		cli
 1402 073c DEBF      		out __SP_H__,r29
 1403 073e 0FBE      		out __SREG__,__tmp_reg__
 1404 0740 CDBF      		out __SP_L__,r28
 1405               	/* prologue: function */
 1406               	/* frame size = 76 */
 1407               	/* stack size = 94 */
 1408               	.L__stack_usage = 94
 1409               	.LVL60:
 1410               	.LBB298:
 1411               	.LBB299:
 1412               	.LM198:
 1413 0742 8FEB      		 ldi r24,lo8(599999)
 1414 0744 97E2      	    ldi r25,hi8(599999)
 1415 0746 A9E0      	    ldi r26,hlo8(599999)
 1416 0748 8150      	    1:subi r24,1
 1417 074a 9040      	    sbci r25,0
 1418 074c A040      	    sbci r26,0
 1419 074e 01F4      	    brne 1b
 1420 0750 00C0      		rjmp .
 1421 0752 0000      		nop
 1422               	.LBE299:
 1423               	.LBE298:
 1424               	.LM199:
 1425 0754 0E94 0000 		call LCDclr
 1426               	.LVL61:
 1427 0758 2E01      		movw r4,r28
 1428 075a 0894      		sec
 1429 075c 411C      		adc r4,__zero_reg__
 1430 075e 511C      		adc r5,__zero_reg__
 1431 0760 8E01      		movw r16,r28
 1432 0762 095D      		subi r16,lo8(-(39))
 1433 0764 1F4F      		sbci r17,hi8(-(39))
 1434               	.LM200:
 1435 0766 D801      		movw r26,r16
 1436 0768 F201      		movw r30,r4
 1437               	.LM201:
 1438 076a 8FEF      		ldi r24,lo8(1023)
 1439 076c 93E0      		ldi r25,hi8(1023)
 1440               	.LVL62:
 1441               	.L81:
 1442               	.LM202:
 1443 076e 8193      		st Z+,r24
 1444 0770 9193      		st Z+,r25
 1445               	.LM203:
 1446 0772 1D92      		st X+,__zero_reg__
 1447 0774 1D92      		st X+,__zero_reg__
 1448               	.LM204:
 1449 0776 E017      		cp r30,r16
 1450 0778 F107      		cpc r31,r17
 1451 077a 01F4      		brne .L81
 1452 077c 00C0      		rjmp .L107
 1453               	.L97:
 1454               	.LM205:
 1455 077e 0E94 0000 		call SensorReadAnalog
 1456               	.LVL63:
 1457 0782 40E0      		ldi r20,lo8(gSensAnalog)
 1458 0784 50E0      		ldi r21,hi8(gSensAnalog)
 1459 0786 20E0      		ldi r18,lo8(gSensRef)
 1460 0788 30E0      		ldi r19,hi8(gSensRef)
 1461 078a D801      		movw r26,r16
 1462 078c 1201      		movw r2,r4
 1463               	.LM206:
 1464 078e BB24      		clr r11
 1465               	.LVL64:
 1466               	.L85:
 1467               	.LM207:
 1468 0790 FA01      		movw r30,r20
 1469 0792 8191      		ld r24,Z+
 1470 0794 9191      		ld r25,Z+
 1471 0796 AF01      		movw r20,r30
 1472 0798 F101      		movw r30,r2
 1473 079a 6081      		ld r22,Z
 1474 079c 7181      		ldd r23,Z+1
 1475 079e 8617      		cp r24,r22
 1476 07a0 9707      		cpc r25,r23
 1477 07a2 00F4      		brsh .L83
 1478               	.LM208:
 1479 07a4 9183      		std Z+1,r25
 1480 07a6 8083      		st Z,r24
 1481               	.L83:
 1482               	.LM209:
 1483 07a8 6D91      		ld r22,X+
 1484 07aa 7C91      		ld r23,X
 1485 07ac 1197      		sbiw r26,1
 1486 07ae 6817      		cp r22,r24
 1487 07b0 7907      		cpc r23,r25
 1488 07b2 00F4      		brsh .L84
 1489               	.LM210:
 1490 07b4 1196      		adiw r26,1
 1491 07b6 9C93      		st X,r25
 1492 07b8 8E93      		st -X,r24
 1493               	.L84:
 1494               	.LM211:
 1495 07ba 8D91      		ld r24,X+
 1496 07bc 9D91      		ld r25,X+
 1497 07be F101      		movw r30,r2
 1498 07c0 6191      		ld r22,Z+
 1499 07c2 7191      		ld r23,Z+
 1500 07c4 1F01      		movw r2,r30
 1501 07c6 860F      		add r24,r22
 1502 07c8 971F      		adc r25,r23
 1503 07ca 9695      		lsr r25
 1504 07cc 8795      		ror r24
 1505 07ce F901      		movw r30,r18
 1506 07d0 8193      		st Z+,r24
 1507 07d2 9193      		st Z+,r25
 1508 07d4 9F01      		movw r18,r30
 1509               	.LM212:
 1510 07d6 B394      		inc r11
 1511               	.LVL65:
 1512 07d8 FB2D      		mov r31,r11
 1513 07da F031      		cpi r31,lo8(16)
 1514 07dc 01F4      		brne .L85
 1515               	.LM213:
 1516 07de 8091 0000 		lds r24,gSensAnalog+32
 1517 07e2 9091 0000 		lds r25,gSensAnalog+32+1
 1518 07e6 29A1      		ldd r18,Y+33
 1519 07e8 3AA1      		ldd r19,Y+34
 1520 07ea 8217      		cp r24,r18
 1521 07ec 9307      		cpc r25,r19
 1522 07ee 00F4      		brsh .L86
 1523               	.LM214:
 1524 07f0 9AA3      		std Y+34,r25
 1525 07f2 89A3      		std Y+33,r24
 1526               	.L86:
 1527               	.LM215:
 1528 07f4 D701      		movw r26,r14
 1529 07f6 2D91      		ld r18,X+
 1530 07f8 3C91      		ld r19,X
 1531 07fa 1197      		sbiw r26,1
 1532 07fc 2817      		cp r18,r24
 1533 07fe 3907      		cpc r19,r25
 1534 0800 00F4      		brsh .L87
 1535               	.LM216:
 1536 0802 1196      		adiw r26,1
 1537 0804 9C93      		st X,r25
 1538 0806 8E93      		st -X,r24
 1539               	.L87:
 1540               	.LM217:
 1541 0808 F701      		movw r30,r14
 1542 080a 8081      		ld r24,Z
 1543 080c 9181      		ldd r25,Z+1
 1544 080e 29A1      		ldd r18,Y+33
 1545 0810 3AA1      		ldd r19,Y+34
 1546 0812 820F      		add r24,r18
 1547 0814 931F      		adc r25,r19
 1548 0816 9695      		lsr r25
 1549 0818 8795      		ror r24
 1550 081a 9093 0000 		sts gSensRef+32+1,r25
 1551 081e 8093 0000 		sts gSensRef+32,r24
 1552               	.LM218:
 1553 0822 8091 0000 		lds r24,gSensAnalog+34
 1554 0826 9091 0000 		lds r25,gSensAnalog+34+1
 1555 082a 2BA1      		ldd r18,Y+35
 1556 082c 3CA1      		ldd r19,Y+36
 1557 082e 8217      		cp r24,r18
 1558 0830 9307      		cpc r25,r19
 1559 0832 00F4      		brsh .L88
 1560               	.LM219:
 1561 0834 9CA3      		std Y+36,r25
 1562 0836 8BA3      		std Y+35,r24
 1563               	.L88:
 1564               	.LM220:
 1565 0838 D601      		movw r26,r12
 1566 083a 2D91      		ld r18,X+
 1567 083c 3C91      		ld r19,X
 1568 083e 1197      		sbiw r26,1
 1569 0840 2817      		cp r18,r24
 1570 0842 3907      		cpc r19,r25
 1571 0844 00F4      		brsh .L89
 1572               	.LM221:
 1573 0846 1196      		adiw r26,1
 1574 0848 9C93      		st X,r25
 1575 084a 8E93      		st -X,r24
 1576               	.L89:
 1577               	.LM222:
 1578 084c F601      		movw r30,r12
 1579 084e 8081      		ld r24,Z
 1580 0850 9181      		ldd r25,Z+1
 1581 0852 2BA1      		ldd r18,Y+35
 1582 0854 3CA1      		ldd r19,Y+36
 1583 0856 820F      		add r24,r18
 1584 0858 931F      		adc r25,r19
 1585 085a 9695      		lsr r25
 1586 085c 8795      		ror r24
 1587 085e 9093 0000 		sts gSensRef+34+1,r25
 1588 0862 8093 0000 		sts gSensRef+34,r24
 1589               	.LM223:
 1590 0866 8091 0000 		lds r24,gSensAnalog+36
 1591 086a 9091 0000 		lds r25,gSensAnalog+36+1
 1592 086e 2DA1      		ldd r18,Y+37
 1593 0870 3EA1      		ldd r19,Y+38
 1594 0872 8217      		cp r24,r18
 1595 0874 9307      		cpc r25,r19
 1596 0876 00F4      		brsh .L90
 1597               	.LM224:
 1598 0878 9EA3      		std Y+38,r25
 1599 087a 8DA3      		std Y+37,r24
 1600               	.L90:
 1601               	.LM225:
 1602 087c D301      		movw r26,r6
 1603 087e 2D91      		ld r18,X+
 1604 0880 3C91      		ld r19,X
 1605 0882 1197      		sbiw r26,1
 1606 0884 2817      		cp r18,r24
 1607 0886 3907      		cpc r19,r25
 1608 0888 00F4      		brsh .L91
 1609               	.LM226:
 1610 088a 8D93      		st X+,r24
 1611 088c 9C93      		st X,r25
 1612               	.L91:
 1613               	.LM227:
 1614 088e F301      		movw r30,r6
 1615 0890 8081      		ld r24,Z
 1616 0892 9181      		ldd r25,Z+1
 1617 0894 2DA1      		ldd r18,Y+37
 1618 0896 3EA1      		ldd r19,Y+38
 1619 0898 820F      		add r24,r18
 1620 089a 931F      		adc r25,r19
 1621 089c 9695      		lsr r25
 1622 089e 8795      		ror r24
 1623 08a0 9093 0000 		sts gSensRef+36+1,r25
 1624 08a4 8093 0000 		sts gSensRef+36,r24
 1625               	.LM228:
 1626 08a8 0E94 0000 		call SensorReadDigital
 1627               	.LVL66:
 1628 08ac EFE0      		ldi r30,lo8(15)
 1629 08ae AE2E      		mov r10,r30
 1630 08b0 77E0      		ldi r23,lo8(7)
 1631 08b2 B72E      		mov r11,r23
 1632               	.LVL67:
 1633               	.L96:
 1634 08b4 982C      		mov r9,r8
 1635 08b6 9B18      		sub r9,r11
 1636               	.LM229:
 1637 08b8 8091 0000 		lds r24,gSensH
 1638 08bc 692D      		mov r22,r9
 1639 08be 0E94 0000 		call isset
 1640 08c2 8823      		tst r24
 1641 08c4 01F0      		breq .L92
 1642               	.LM230:
 1643 08c6 81E0      		ldi r24,lo8(1)
 1644 08c8 90E0      		ldi r25,hi8(1)
 1645 08ca 00C0      		rjmp .L105
 1646               	.L92:
 1647               	.LM231:
 1648 08cc 80E0      		ldi r24,lo8(0)
 1649 08ce 90E0      		ldi r25,hi8(0)
 1650               	.L105:
 1651 08d0 6B2D      		mov r22,r11
 1652 08d2 41E0      		ldi r20,lo8(1)
 1653 08d4 21E0      		ldi r18,lo8(1)
 1654 08d6 0E94 0000 		call cetak_bil
 1655               	.LM232:
 1656 08da 8091 0000 		lds r24,gSensL
 1657 08de 692D      		mov r22,r9
 1658 08e0 0E94 0000 		call isset
 1659 08e4 8823      		tst r24
 1660 08e6 01F0      		breq .L94
 1661               	.LM233:
 1662 08e8 81E0      		ldi r24,lo8(1)
 1663 08ea 90E0      		ldi r25,hi8(1)
 1664 08ec 00C0      		rjmp .L106
 1665               	.L94:
 1666               	.LM234:
 1667 08ee 80E0      		ldi r24,lo8(0)
 1668 08f0 90E0      		ldi r25,hi8(0)
 1669               	.L106:
 1670 08f2 6A2D      		mov r22,r10
 1671 08f4 41E0      		ldi r20,lo8(1)
 1672 08f6 21E0      		ldi r18,lo8(1)
 1673 08f8 0E94 0000 		call cetak_bil
 1674 08fc BA94      		dec r11
 1675 08fe AA94      		dec r10
 1676               	.LM235:
 1677 0900 FB2D      		mov r31,r11
 1678 0902 FF3F      		cpi r31,lo8(-1)
 1679 0904 01F4      		brne .L96
 1680               	.LM236:
 1681 0906 8091 0000 		lds r24,gSensA
 1682 090a 60E0      		ldi r22,lo8(0)
 1683 090c 0E94 0000 		call isset
 1684 0910 90E0      		ldi r25,lo8(0)
 1685 0912 67E0      		ldi r22,lo8(7)
 1686 0914 40E0      		ldi r20,lo8(0)
 1687 0916 21E0      		ldi r18,lo8(1)
 1688 0918 0E94 0000 		call cetak_bil
 1689               	.LM237:
 1690 091c 8091 0000 		lds r24,gSensA
 1691 0920 62E0      		ldi r22,lo8(2)
 1692 0922 0E94 0000 		call isset
 1693 0926 90E0      		ldi r25,lo8(0)
 1694 0928 68E0      		ldi r22,lo8(8)
 1695 092a 40E0      		ldi r20,lo8(0)
 1696 092c 21E0      		ldi r18,lo8(1)
 1697 092e 0E94 0000 		call cetak_bil
 1698               	.LM238:
 1699 0932 8091 0000 		lds r24,gSensA
 1700 0936 61E0      		ldi r22,lo8(1)
 1701 0938 0E94 0000 		call isset
 1702 093c 90E0      		ldi r25,lo8(0)
 1703 093e 69E0      		ldi r22,lo8(9)
 1704 0940 40E0      		ldi r20,lo8(0)
 1705 0942 21E0      		ldi r18,lo8(1)
 1706 0944 0E94 0000 		call cetak_bil
 1707 0948 00C0      		rjmp .L104
 1708               	.L107:
 1709               	.LM239:
 1710 094a 67E4      		ldi r22,lo8(71)
 1711 094c E62E      		mov r14,r22
 1712 094e F12C      		mov r15,__zero_reg__
 1713 0950 EC0E      		add r14,r28
 1714 0952 FD1E      		adc r15,r29
 1715               	.LM240:
 1716 0954 59E4      		ldi r21,lo8(73)
 1717 0956 C52E      		mov r12,r21
 1718 0958 D12C      		mov r13,__zero_reg__
 1719 095a CC0E      		add r12,r28
 1720 095c DD1E      		adc r13,r29
 1721               	.LM241:
 1722 095e 4BE4      		ldi r20,lo8(75)
 1723 0960 642E      		mov r6,r20
 1724 0962 712C      		mov r7,__zero_reg__
 1725 0964 6C0E      		add r6,r28
 1726 0966 7D1E      		adc r7,r29
 1727               	.LM242:
 1728 0968 37E0      		ldi r19,lo8(7)
 1729 096a 832E      		mov r8,r19
 1730               	.L104:
 1731               	.LM243:
 1732 096c 0E94 0000 		call ButtonIsNotPressed
 1733 0970 8823      		tst r24
 1734 0972 01F0      		breq .+2
 1735 0974 00C0      		rjmp .L97
 1736               	.LM244:
 1737 0976 20E0      		ldi r18,lo8(gSensRef)
 1738 0978 E22E      		mov r14,r18
 1739 097a 20E0      		ldi r18,hi8(gSensRef)
 1740 097c F22E      		mov r15,r18
 1741 097e 07E1      		ldi r16,lo8(535)
 1742 0980 12E0      		ldi r17,hi8(535)
 1743               	.L98:
 1744               	.LBB300:
 1745               	.LM245:
 1746 0982 D701      		movw r26,r14
 1747 0984 6D91      		ld r22,X+
 1748 0986 7D91      		ld r23,X+
 1749 0988 7D01      		movw r14,r26
 1750 098a 7695      		lsr r23
 1751 098c 6795      		ror r22
 1752 098e 7695      		lsr r23
 1753 0990 6795      		ror r22
 1754 0992 C801      		movw r24,r16
 1755 0994 0E94 0000 		call __eeupd_byte_m32
 1756 0998 0F5F      		subi r16,lo8(-(1))
 1757 099a 1F4F      		sbci r17,hi8(-(1))
 1758               	.LM246:
 1759 099c B2E0      		ldi r27,hi8(554)
 1760 099e 0A32      		cpi r16,lo8(554)
 1761 09a0 1B07      		cpc r17,r27
 1762 09a2 01F4      		brne .L98
 1763               	.LBE300:
 1764               	.LM247:
 1765 09a4 1092 0000 		sts gState+1,__zero_reg__
 1766 09a8 1092 0000 		sts gState,__zero_reg__
 1767               	/* epilogue start */
 1768               	.LM248:
 1769 09ac C45B      		subi r28,lo8(-(76))
 1770 09ae DF4F      		sbci r29,hi8(-(76))
 1771 09b0 0FB6      		in __tmp_reg__,__SREG__
 1772 09b2 F894      		cli
 1773 09b4 DEBF      		out __SP_H__,r29
 1774 09b6 0FBE      		out __SREG__,__tmp_reg__
 1775 09b8 CDBF      		out __SP_L__,r28
 1776 09ba CF91      		pop r28
 1777 09bc DF91      		pop r29
 1778 09be 1F91      		pop r17
 1779 09c0 0F91      		pop r16
 1780 09c2 FF90      		pop r15
 1781 09c4 EF90      		pop r14
 1782 09c6 DF90      		pop r13
 1783 09c8 CF90      		pop r12
 1784 09ca BF90      		pop r11
 1785 09cc AF90      		pop r10
 1786 09ce 9F90      		pop r9
 1787 09d0 8F90      		pop r8
 1788 09d2 7F90      		pop r7
 1789 09d4 6F90      		pop r6
 1790 09d6 5F90      		pop r5
 1791 09d8 4F90      		pop r4
 1792 09da 3F90      		pop r3
 1793 09dc 2F90      		pop r2
 1794 09de 0895      		ret
 1795               	.LFE47:
 1797               	.global	Calibrate
 1799               	Calibrate:
 1800               	.LFB46:
 1801               	.LM249:
 1802               	/* prologue: function */
 1803               	/* frame size = 0 */
 1804               	/* stack size = 0 */
 1805               	.L__stack_usage = 0
 1806               	.LM250:
 1807 09e0 0E94 0000 		call SensorCalibrate
 1808               	/* epilogue start */
 1809               	.LM251:
 1810 09e4 0895      		ret
 1811               	.LFE46:
 1813               	.global	SensorRemap
 1815               	SensorRemap:
 1816               	.LFB48:
 1817               	.LM252:
 1818               	/* prologue: function */
 1819               	/* frame size = 0 */
 1820               	/* stack size = 0 */
 1821               	.L__stack_usage = 0
 1822               	/* epilogue start */
 1823               	.LM253:
 1824 09e6 0895      		ret
 1825               	.LFE48:
 1827               	.global	SaveCase
 1829               	SaveCase:
 1830               	.LFB49:
 1831               	.LM254:
 1832 09e8 1F93      		push r17
 1833 09ea CF93      		push r28
 1834 09ec DF93      		push r29
 1835               	/* prologue: function */
 1836               	/* frame size = 0 */
 1837               	/* stack size = 3 */
 1838               	.L__stack_usage = 3
 1839               	.LM255:
 1840 09ee 82E0      		ldi r24,lo8(2)
 1841 09f0 90E0      		ldi r25,hi8(2)
 1842 09f2 6091 0000 		lds r22,gCaseN
 1843 09f6 0E94 0000 		call __eewr_byte_m32
 1844               	.LVL68:
 1845               	.LBB301:
 1846               	.LM256:
 1847 09fa 11E0      		ldi r17,lo8(1)
 1848 09fc 00C0      		rjmp .L111
 1849               	.LVL69:
 1850               	.L112:
 1851               	.LM257:
 1852 09fe C12F      		mov r28,r17
 1853 0a00 D0E0      		ldi r29,lo8(0)
 1854 0a02 FE01      		movw r30,r28
 1855 0a04 E050      		subi r30,lo8(-(gCaseH))
 1856 0a06 F040      		sbci r31,hi8(-(gCaseH))
 1857 0a08 CE01      		movw r24,r28
 1858 0a0a 0396      		adiw r24,3
 1859 0a0c 6081      		ld r22,Z
 1860 0a0e 0E94 0000 		call __eewr_byte_m32
 1861               	.LM258:
 1862 0a12 FE01      		movw r30,r28
 1863 0a14 E050      		subi r30,lo8(-(gCaseL))
 1864 0a16 F040      		sbci r31,hi8(-(gCaseL))
 1865 0a18 CE01      		movw r24,r28
 1866 0a1a 8C96      		adiw r24,44
 1867 0a1c 6081      		ld r22,Z
 1868 0a1e 0E94 0000 		call __eewr_byte_m32
 1869               	.LM259:
 1870 0a22 FE01      		movw r30,r28
 1871 0a24 E050      		subi r30,lo8(-(gCaseV))
 1872 0a26 F040      		sbci r31,hi8(-(gCaseV))
 1873 0a28 CE01      		movw r24,r28
 1874 0a2a 8B5A      		subi r24,lo8(-(85))
 1875 0a2c 9F4F      		sbci r25,hi8(-(85))
 1876 0a2e 6081      		ld r22,Z
 1877 0a30 0E94 0000 		call __eewr_byte_m32
 1878               	.LM260:
 1879 0a34 1F5F      		subi r17,lo8(-(1))
 1880               	.LVL70:
 1881               	.L111:
 1882               	.LM261:
 1883 0a36 8091 0000 		lds r24,gCaseN
 1884 0a3a 8117      		cp r24,r17
 1885 0a3c 00F4      		brsh .L112
 1886               	/* epilogue start */
 1887               	.LBE301:
 1888               	.LM262:
 1889 0a3e DF91      		pop r29
 1890 0a40 CF91      		pop r28
 1891 0a42 1F91      		pop r17
 1892               	.LVL71:
 1893 0a44 0895      		ret
 1894               	.LFE49:
 1896               	.global	LoadCase
 1898               	LoadCase:
 1899               	.LFB50:
 1900               	.LM263:
 1901 0a46 0F93      		push r16
 1902 0a48 1F93      		push r17
 1903 0a4a CF93      		push r28
 1904 0a4c DF93      		push r29
 1905               	/* prologue: function */
 1906               	/* frame size = 0 */
 1907               	/* stack size = 4 */
 1908               	.L__stack_usage = 4
 1909               	.LM264:
 1910 0a4e 82E0      		ldi r24,lo8(2)
 1911 0a50 90E0      		ldi r25,hi8(2)
 1912 0a52 0E94 0000 		call __eerd_byte_m32
 1913 0a56 082F      		mov r16,r24
 1914 0a58 8093 0000 		sts gCaseN,r24
 1915               	.LVL72:
 1916               	.LBB302:
 1917               	.LM265:
 1918 0a5c 11E0      		ldi r17,lo8(1)
 1919 0a5e 00C0      		rjmp .L114
 1920               	.LVL73:
 1921               	.L115:
 1922               	.LM266:
 1923 0a60 C12F      		mov r28,r17
 1924 0a62 D0E0      		ldi r29,lo8(0)
 1925 0a64 CE01      		movw r24,r28
 1926 0a66 0396      		adiw r24,3
 1927 0a68 0E94 0000 		call __eerd_byte_m32
 1928 0a6c FE01      		movw r30,r28
 1929 0a6e E050      		subi r30,lo8(-(gCaseH))
 1930 0a70 F040      		sbci r31,hi8(-(gCaseH))
 1931 0a72 8083      		st Z,r24
 1932               	.LM267:
 1933 0a74 CE01      		movw r24,r28
 1934 0a76 8C96      		adiw r24,44
 1935 0a78 0E94 0000 		call __eerd_byte_m32
 1936 0a7c FE01      		movw r30,r28
 1937 0a7e E050      		subi r30,lo8(-(gCaseL))
 1938 0a80 F040      		sbci r31,hi8(-(gCaseL))
 1939 0a82 8083      		st Z,r24
 1940               	.LM268:
 1941 0a84 CE01      		movw r24,r28
 1942 0a86 8B5A      		subi r24,lo8(-(85))
 1943 0a88 9F4F      		sbci r25,hi8(-(85))
 1944 0a8a 0E94 0000 		call __eerd_byte_m32
 1945 0a8e C050      		subi r28,lo8(-(gCaseV))
 1946 0a90 D040      		sbci r29,hi8(-(gCaseV))
 1947 0a92 8883      		st Y,r24
 1948               	.LM269:
 1949 0a94 1F5F      		subi r17,lo8(-(1))
 1950               	.LVL74:
 1951               	.L114:
 1952               	.LM270:
 1953 0a96 0117      		cp r16,r17
 1954 0a98 00F4      		brsh .L115
 1955               	/* epilogue start */
 1956               	.LBE302:
 1957               	.LM271:
 1958 0a9a DF91      		pop r29
 1959 0a9c CF91      		pop r28
 1960 0a9e 1F91      		pop r17
 1961               	.LVL75:
 1962 0aa0 0F91      		pop r16
 1963 0aa2 0895      		ret
 1964               	.LFE50:
 1966               	.global	SetDefault
 1968               	SetDefault:
 1969               	.LFB51:
 1970               	.LM272:
 1971 0aa4 EF92      		push r14
 1972 0aa6 FF92      		push r15
 1973 0aa8 0F93      		push r16
 1974 0aaa 1F93      		push r17
 1975               	/* prologue: function */
 1976               	/* frame size = 0 */
 1977               	/* stack size = 4 */
 1978               	.L__stack_usage = 4
 1979               	.LM273:
 1980 0aac 80E2      		ldi r24,lo8(32)
 1981 0aae 8093 0000 		sts gCaseN,r24
 1982               	.LM274:
 1983 0ab2 70E8      		ldi r23,lo8(-128)
 1984 0ab4 7093 0000 		sts gCaseH,r23
 1985 0ab8 1092 0000 		sts gCaseL,__zero_reg__
 1986 0abc 8FE0      		ldi r24,lo8(15)
 1987 0abe 8093 0000 		sts gCaseV,r24
 1988               	.LM275:
 1989 0ac2 60EC      		ldi r22,lo8(-64)
 1990 0ac4 6093 0000 		sts gCaseH+1,r22
 1991 0ac8 1092 0000 		sts gCaseL+1,__zero_reg__
 1992 0acc 4EE0      		ldi r20,lo8(14)
 1993 0ace 4093 0000 		sts gCaseV+1,r20
 1994               	.LM276:
 1995 0ad2 A0EE      		ldi r26,lo8(-32)
 1996 0ad4 EA2E      		mov r14,r26
 1997 0ad6 E092 0000 		sts gCaseH+2,r14
 1998 0ada 1092 0000 		sts gCaseL+2,__zero_reg__
 1999 0ade EDE0      		ldi r30,lo8(13)
 2000 0ae0 E093 0000 		sts gCaseV+2,r30
 2001               	.LM277:
 2002 0ae4 F0E6      		ldi r31,lo8(96)
 2003 0ae6 FF2E      		mov r15,r31
 2004 0ae8 F092 0000 		sts gCaseH+3,r15
 2005 0aec 1092 0000 		sts gCaseL+3,__zero_reg__
 2006 0af0 5CE0      		ldi r21,lo8(12)
 2007 0af2 5093 0000 		sts gCaseV+3,r21
 2008               	.LM278:
 2009 0af6 00E7      		ldi r16,lo8(112)
 2010 0af8 0093 0000 		sts gCaseH+4,r16
 2011 0afc 1092 0000 		sts gCaseL+4,__zero_reg__
 2012 0b00 8BE0      		ldi r24,lo8(11)
 2013 0b02 8093 0000 		sts gCaseV+4,r24
 2014               	.LM279:
 2015 0b06 10E3      		ldi r17,lo8(48)
 2016 0b08 1093 0000 		sts gCaseH+5,r17
 2017 0b0c 1092 0000 		sts gCaseL+5,__zero_reg__
 2018 0b10 8AE0      		ldi r24,lo8(10)
 2019 0b12 8093 0000 		sts gCaseV+5,r24
 2020               	.LM280:
 2021 0b16 B8E3      		ldi r27,lo8(56)
 2022 0b18 B093 0000 		sts gCaseH+6,r27
 2023 0b1c 1092 0000 		sts gCaseL+6,__zero_reg__
 2024 0b20 89E0      		ldi r24,lo8(9)
 2025 0b22 8093 0000 		sts gCaseV+6,r24
 2026               	.LM281:
 2027 0b26 A8E1      		ldi r26,lo8(24)
 2028 0b28 A093 0000 		sts gCaseH+7,r26
 2029 0b2c 1092 0000 		sts gCaseL+7,__zero_reg__
 2030 0b30 88E0      		ldi r24,lo8(8)
 2031 0b32 8093 0000 		sts gCaseV+7,r24
 2032               	.LM282:
 2033 0b36 FCE1      		ldi r31,lo8(28)
 2034 0b38 F093 0000 		sts gCaseH+8,r31
 2035 0b3c 1092 0000 		sts gCaseL+8,__zero_reg__
 2036 0b40 27E0      		ldi r18,lo8(7)
 2037 0b42 2093 0000 		sts gCaseV+8,r18
 2038               	.LM283:
 2039 0b46 5093 0000 		sts gCaseH+9,r21
 2040 0b4a 1092 0000 		sts gCaseL+9,__zero_reg__
 2041 0b4e 36E0      		ldi r19,lo8(6)
 2042 0b50 3093 0000 		sts gCaseV+9,r19
 2043               	.LM284:
 2044 0b54 4093 0000 		sts gCaseH+10,r20
 2045 0b58 1092 0000 		sts gCaseL+10,__zero_reg__
 2046 0b5c 85E0      		ldi r24,lo8(5)
 2047 0b5e 8093 0000 		sts gCaseV+10,r24
 2048               	.LM285:
 2049 0b62 3093 0000 		sts gCaseH+11,r19
 2050 0b66 1092 0000 		sts gCaseL+11,__zero_reg__
 2051 0b6a 94E0      		ldi r25,lo8(4)
 2052 0b6c 9093 0000 		sts gCaseV+11,r25
 2053               	.LM286:
 2054 0b70 2093 0000 		sts gCaseH+12,r18
 2055 0b74 1092 0000 		sts gCaseL+12,__zero_reg__
 2056 0b78 8093 0000 		sts gCaseV+12,r24
 2057               	.LM287:
 2058 0b7c 93E0      		ldi r25,lo8(3)
 2059 0b7e 9093 0000 		sts gCaseH+13,r25
 2060 0b82 1092 0000 		sts gCaseL+13,__zero_reg__
 2061 0b86 82E0      		ldi r24,lo8(2)
 2062 0b88 8093 0000 		sts gCaseV+13,r24
 2063               	.LM288:
 2064 0b8c 9093 0000 		sts gCaseH+14,r25
 2065 0b90 7093 0000 		sts gCaseL+14,r23
 2066 0b94 1092 0000 		sts gCaseV+14,__zero_reg__
 2067               	.LM289:
 2068 0b98 81E0      		ldi r24,lo8(1)
 2069 0b9a 8093 0000 		sts gCaseH+15,r24
 2070 0b9e 7093 0000 		sts gCaseL+15,r23
 2071 0ba2 1092 0000 		sts gCaseV+15,__zero_reg__
 2072               	.LM290:
 2073 0ba6 8093 0000 		sts gCaseH+16,r24
 2074 0baa 6093 0000 		sts gCaseL+16,r22
 2075 0bae 1092 0000 		sts gCaseV+16,__zero_reg__
 2076               	.LM291:
 2077 0bb2 1092 0000 		sts gCaseH+17,__zero_reg__
 2078 0bb6 6093 0000 		sts gCaseL+17,r22
 2079 0bba 6EEF      		ldi r22,lo8(-2)
 2080 0bbc 6093 0000 		sts gCaseV+17,r22
 2081               	.LM292:
 2082 0bc0 1092 0000 		sts gCaseH+18,__zero_reg__
 2083 0bc4 E092 0000 		sts gCaseL+18,r14
 2084 0bc8 6BEF      		ldi r22,lo8(-5)
 2085 0bca 6093 0000 		sts gCaseV+18,r22
 2086               	.LM293:
 2087 0bce 1092 0000 		sts gCaseH+19,__zero_reg__
 2088 0bd2 F092 0000 		sts gCaseL+19,r15
 2089 0bd6 7CEF      		ldi r23,lo8(-4)
 2090 0bd8 7093 0000 		sts gCaseV+19,r23
 2091               	.LM294:
 2092 0bdc 1092 0000 		sts gCaseH+20,__zero_reg__
 2093 0be0 0093 0000 		sts gCaseL+20,r16
 2094 0be4 6093 0000 		sts gCaseV+20,r22
 2095               	.LM295:
 2096 0be8 1092 0000 		sts gCaseH+21,__zero_reg__
 2097 0bec 1093 0000 		sts gCaseL+21,r17
 2098 0bf0 6AEF      		ldi r22,lo8(-6)
 2099 0bf2 6093 0000 		sts gCaseV+21,r22
 2100               	.LM296:
 2101 0bf6 1092 0000 		sts gCaseH+22,__zero_reg__
 2102 0bfa B093 0000 		sts gCaseL+22,r27
 2103 0bfe 69EF      		ldi r22,lo8(-7)
 2104 0c00 6093 0000 		sts gCaseV+22,r22
 2105               	.LM297:
 2106 0c04 1092 0000 		sts gCaseH+23,__zero_reg__
 2107 0c08 A093 0000 		sts gCaseL+23,r26
 2108 0c0c 68EF      		ldi r22,lo8(-8)
 2109 0c0e 6093 0000 		sts gCaseV+23,r22
 2110               	.LM298:
 2111 0c12 1092 0000 		sts gCaseH+24,__zero_reg__
 2112 0c16 F093 0000 		sts gCaseL+24,r31
 2113 0c1a 67EF      		ldi r22,lo8(-9)
 2114 0c1c 6093 0000 		sts gCaseV+24,r22
 2115               	.LM299:
 2116 0c20 1092 0000 		sts gCaseH+25,__zero_reg__
 2117 0c24 5093 0000 		sts gCaseL+25,r21
 2118 0c28 56EF      		ldi r21,lo8(-10)
 2119 0c2a 5093 0000 		sts gCaseV+25,r21
 2120               	.LM300:
 2121 0c2e 1092 0000 		sts gCaseH+26,__zero_reg__
 2122 0c32 4093 0000 		sts gCaseL+26,r20
 2123 0c36 45EF      		ldi r20,lo8(-11)
 2124 0c38 4093 0000 		sts gCaseV+26,r20
 2125               	.LM301:
 2126 0c3c 1092 0000 		sts gCaseH+27,__zero_reg__
 2127 0c40 3093 0000 		sts gCaseL+27,r19
 2128 0c44 34EF      		ldi r19,lo8(-12)
 2129 0c46 3093 0000 		sts gCaseV+27,r19
 2130               	.LM302:
 2131 0c4a 1092 0000 		sts gCaseH+28,__zero_reg__
 2132 0c4e 2093 0000 		sts gCaseL+28,r18
 2133 0c52 23EF      		ldi r18,lo8(-13)
 2134 0c54 2093 0000 		sts gCaseV+28,r18
 2135               	.LM303:
 2136 0c58 1092 0000 		sts gCaseH+29,__zero_reg__
 2137 0c5c 9093 0000 		sts gCaseL+29,r25
 2138 0c60 92EF      		ldi r25,lo8(-14)
 2139 0c62 9093 0000 		sts gCaseV+29,r25
 2140               	.LM304:
 2141 0c66 1092 0000 		sts gCaseH+30,__zero_reg__
 2142 0c6a 8093 0000 		sts gCaseL+30,r24
 2143 0c6e 81EF      		ldi r24,lo8(-15)
 2144 0c70 8093 0000 		sts gCaseV+30,r24
 2145               	.LM305:
 2146 0c74 88E7      		ldi r24,lo8(120)
 2147 0c76 8093 0000 		sts gCaseH+31,r24
 2148 0c7a 1092 0000 		sts gCaseL+31,__zero_reg__
 2149 0c7e E093 0000 		sts gCaseV+31,r30
 2150               	.LM306:
 2151 0c82 1092 0000 		sts gCaseH+32,__zero_reg__
 2152 0c86 8EE1      		ldi r24,lo8(30)
 2153 0c88 8093 0000 		sts gCaseL+32,r24
 2154 0c8c 2093 0000 		sts gCaseV+32,r18
 2155               	/* epilogue start */
 2156               	.LM307:
 2157 0c90 1F91      		pop r17
 2158 0c92 0F91      		pop r16
 2159 0c94 FF90      		pop r15
 2160 0c96 EF90      		pop r14
 2161 0c98 0895      		ret
 2162               	.LFE51:
 2164               	.global	Init
 2166               	Init:
 2167               	.LFB16:
 2168               	.LM308:
 2169 0c9a 0F93      		push r16
 2170 0c9c 1F93      		push r17
 2171 0c9e CF93      		push r28
 2172 0ca0 DF93      		push r29
 2173               	/* prologue: function */
 2174               	/* frame size = 0 */
 2175               	/* stack size = 4 */
 2176               	.L__stack_usage = 4
 2177               	.LM309:
 2178 0ca2 1092 0000 		sts counter,__zero_reg__
 2179 0ca6 1092 0000 		sts counter+1,__zero_reg__
 2180 0caa 1092 0000 		sts counter+2,__zero_reg__
 2181 0cae 1092 0000 		sts counter+3,__zero_reg__
 2182               	.LM310:
 2183 0cb2 0E94 0000 		call SetDefault
 2184               	.LM311:
 2185 0cb6 0E94 0000 		call LCDinit
 2186               	.LM312:
 2187 0cba 0E94 0000 		call LCDclr
 2188               	.LM313:
 2189 0cbe 80E0      		ldi r24,lo8(0)
 2190 0cc0 60E0      		ldi r22,lo8(0)
 2191 0cc2 0E94 0000 		call LCDGotoXY
 2192               	.LM314:
 2193 0cc6 0E94 0000 		call LCDclr
 2194               	.LM315:
 2195 0cca 80E0      		ldi r24,lo8(0)
 2196 0ccc 60E0      		ldi r22,lo8(0)
 2197 0cce 0E94 0000 		call LCDGotoXY
 2198               	.LM316:
 2199 0cd2 0E94 0000 		call initpwm
 2200               	.LM317:
 2201 0cd6 81B3      		in r24,49-32
 2202 0cd8 8C63      		ori r24,lo8(60)
 2203 0cda 81BB      		out 49-32,r24
 2204               	.LM318:
 2205 0cdc 80EE      		ldi r24,lo8(-32)
 2206 0cde 84BB      		out 52-32,r24
 2207               	.LM319:
 2208 0ce0 8FE0      		ldi r24,lo8(15)
 2209 0ce2 85BB      		out 53-32,r24
 2210               	.LM320:
 2211 0ce4 88E3      		ldi r24,lo8(56)
 2212 0ce6 8ABB      		out 58-32,r24
 2213               	.LM321:
 2214 0ce8 0E94 0000 		call initadc
 2215               	.LM322:
 2216 0cec 81E0      		ldi r24,lo8(1)
 2217 0cee 8093 0000 		sts gScrollNum,r24
 2218               	.LM323:
 2219 0cf2 1092 0000 		sts gDriveLastError,__zero_reg__
 2220               	.LM324:
 2221 0cf6 88E7      		ldi r24,lo8(120)
 2222 0cf8 8093 0000 		sts gDriveLimit,r24
 2223               	.LM325:
 2224 0cfc 8BE2      		ldi r24,lo8(555)
 2225 0cfe 92E0      		ldi r25,hi8(555)
 2226 0d00 0E94 0000 		call __eerd_byte_m32
 2227 0d04 8093 0000 		sts gDriveSpeed,r24
 2228               	.LM326:
 2229 0d08 8CE2      		ldi r24,lo8(556)
 2230 0d0a 92E0      		ldi r25,hi8(556)
 2231 0d0c 0E94 0000 		call __eerd_byte_m32
 2232 0d10 8093 0000 		sts gDriveKP,r24
 2233 0d14 1092 0000 		sts gDriveKP+1,__zero_reg__
 2234               	.LM327:
 2235 0d18 8DE2      		ldi r24,lo8(557)
 2236 0d1a 92E0      		ldi r25,hi8(557)
 2237 0d1c 0E94 0000 		call __eerd_byte_m32
 2238 0d20 8093 0000 		sts gDriveKD,r24
 2239 0d24 1092 0000 		sts gDriveKD+1,__zero_reg__
 2240               	.LVL76:
 2241 0d28 00E0      		ldi r16,lo8(gSensRef)
 2242 0d2a 10E0      		ldi r17,hi8(gSensRef)
 2243 0d2c C7E1      		ldi r28,lo8(535)
 2244 0d2e D2E0      		ldi r29,hi8(535)
 2245               	.LVL77:
 2246               	.L118:
 2247               	.LBB303:
 2248               	.LM328:
 2249 0d30 CE01      		movw r24,r28
 2250 0d32 0E94 0000 		call __eerd_byte_m32
 2251 0d36 90E0      		ldi r25,lo8(0)
 2252 0d38 880F      		lsl r24
 2253 0d3a 991F      		rol r25
 2254 0d3c 880F      		lsl r24
 2255 0d3e 991F      		rol r25
 2256 0d40 F801      		movw r30,r16
 2257 0d42 8193      		st Z+,r24
 2258 0d44 9193      		st Z+,r25
 2259 0d46 8F01      		movw r16,r30
 2260 0d48 2196      		adiw r28,1
 2261               	.LM329:
 2262 0d4a F2E0      		ldi r31,hi8(554)
 2263 0d4c CA32      		cpi r28,lo8(554)
 2264 0d4e DF07      		cpc r29,r31
 2265 0d50 01F4      		brne .L118
 2266               	/* epilogue start */
 2267               	.LBE303:
 2268               	.LM330:
 2269 0d52 DF91      		pop r29
 2270 0d54 CF91      		pop r28
 2271 0d56 1F91      		pop r17
 2272 0d58 0F91      		pop r16
 2273 0d5a 0895      		ret
 2274               	.LFE16:
 2276               	.global	SetMinim
 2278               	SetMinim:
 2279               	.LFB52:
 2280               	.LM331:
 2281               	/* prologue: function */
 2282               	/* frame size = 0 */
 2283               	/* stack size = 0 */
 2284               	.L__stack_usage = 0
 2285               	.LM332:
 2286 0d5c 80E1      		ldi r24,lo8(16)
 2287 0d5e 8093 0000 		sts gCaseN,r24
 2288               	.LM333:
 2289 0d62 E0E8      		ldi r30,lo8(-128)
 2290 0d64 E093 0000 		sts gCaseH,r30
 2291 0d68 1092 0000 		sts gCaseL,__zero_reg__
 2292 0d6c 8FE0      		ldi r24,lo8(15)
 2293 0d6e 8093 0000 		sts gCaseV,r24
 2294               	.LM334:
 2295 0d72 70EC      		ldi r23,lo8(-64)
 2296 0d74 7093 0000 		sts gCaseH+1,r23
 2297 0d78 1092 0000 		sts gCaseL+1,__zero_reg__
 2298 0d7c 8EE0      		ldi r24,lo8(14)
 2299 0d7e 8093 0000 		sts gCaseV+1,r24
 2300               	.LM335:
 2301 0d82 60E6      		ldi r22,lo8(96)
 2302 0d84 6093 0000 		sts gCaseH+2,r22
 2303 0d88 1092 0000 		sts gCaseL+2,__zero_reg__
 2304 0d8c 9CE0      		ldi r25,lo8(12)
 2305 0d8e 9093 0000 		sts gCaseV+2,r25
 2306               	.LM336:
 2307 0d92 50E3      		ldi r21,lo8(48)
 2308 0d94 5093 0000 		sts gCaseH+3,r21
 2309 0d98 1092 0000 		sts gCaseL+3,__zero_reg__
 2310 0d9c 8AE0      		ldi r24,lo8(10)
 2311 0d9e 8093 0000 		sts gCaseV+3,r24
 2312               	.LM337:
 2313 0da2 48E1      		ldi r20,lo8(24)
 2314 0da4 4093 0000 		sts gCaseH+4,r20
 2315 0da8 1092 0000 		sts gCaseL+4,__zero_reg__
 2316 0dac 88E0      		ldi r24,lo8(8)
 2317 0dae 8093 0000 		sts gCaseV+4,r24
 2318               	.LM338:
 2319 0db2 9093 0000 		sts gCaseH+5,r25
 2320 0db6 1092 0000 		sts gCaseL+5,__zero_reg__
 2321 0dba 86E0      		ldi r24,lo8(6)
 2322 0dbc 8093 0000 		sts gCaseV+5,r24
 2323               	.LM339:
 2324 0dc0 8093 0000 		sts gCaseH+6,r24
 2325 0dc4 1092 0000 		sts gCaseL+6,__zero_reg__
 2326 0dc8 24E0      		ldi r18,lo8(4)
 2327 0dca 2093 0000 		sts gCaseV+6,r18
 2328               	.LM340:
 2329 0dce 33E0      		ldi r19,lo8(3)
 2330 0dd0 3093 0000 		sts gCaseH+7,r19
 2331 0dd4 1092 0000 		sts gCaseL+7,__zero_reg__
 2332 0dd8 22E0      		ldi r18,lo8(2)
 2333 0dda 2093 0000 		sts gCaseV+7,r18
 2334               	.LM341:
 2335 0dde 21E0      		ldi r18,lo8(1)
 2336 0de0 2093 0000 		sts gCaseH+8,r18
 2337 0de4 E093 0000 		sts gCaseL+8,r30
 2338 0de8 1092 0000 		sts gCaseV+8,__zero_reg__
 2339               	.LM342:
 2340 0dec 1092 0000 		sts gCaseH+9,__zero_reg__
 2341 0df0 7093 0000 		sts gCaseL+9,r23
 2342 0df4 7EEF      		ldi r23,lo8(-2)
 2343 0df6 7093 0000 		sts gCaseV+9,r23
 2344               	.LM343:
 2345 0dfa 1092 0000 		sts gCaseH+10,__zero_reg__
 2346 0dfe 6093 0000 		sts gCaseL+10,r22
 2347 0e02 6CEF      		ldi r22,lo8(-4)
 2348 0e04 6093 0000 		sts gCaseV+10,r22
 2349               	.LM344:
 2350 0e08 1092 0000 		sts gCaseH+11,__zero_reg__
 2351 0e0c 5093 0000 		sts gCaseL+11,r21
 2352 0e10 5AEF      		ldi r21,lo8(-6)
 2353 0e12 5093 0000 		sts gCaseV+11,r21
 2354               	.LM345:
 2355 0e16 1092 0000 		sts gCaseH+12,__zero_reg__
 2356 0e1a 4093 0000 		sts gCaseL+12,r20
 2357 0e1e 48EF      		ldi r20,lo8(-8)
 2358 0e20 4093 0000 		sts gCaseV+12,r20
 2359               	.LM346:
 2360 0e24 1092 0000 		sts gCaseH+13,__zero_reg__
 2361 0e28 9093 0000 		sts gCaseL+13,r25
 2362 0e2c 96EF      		ldi r25,lo8(-10)
 2363 0e2e 9093 0000 		sts gCaseV+13,r25
 2364               	.LM347:
 2365 0e32 1092 0000 		sts gCaseH+14,__zero_reg__
 2366 0e36 8093 0000 		sts gCaseL+14,r24
 2367 0e3a 84EF      		ldi r24,lo8(-12)
 2368 0e3c 8093 0000 		sts gCaseV+14,r24
 2369               	.LM348:
 2370 0e40 1092 0000 		sts gCaseH+15,__zero_reg__
 2371 0e44 3093 0000 		sts gCaseL+15,r19
 2372 0e48 82EF      		ldi r24,lo8(-14)
 2373 0e4a 8093 0000 		sts gCaseV+15,r24
 2374               	.LM349:
 2375 0e4e 1092 0000 		sts gCaseH+16,__zero_reg__
 2376 0e52 2093 0000 		sts gCaseL+16,r18
 2377 0e56 81EF      		ldi r24,lo8(-15)
 2378 0e58 8093 0000 		sts gCaseV+16,r24
 2379               	/* epilogue start */
 2380               	.LM350:
 2381 0e5c 0895      		ret
 2382               	.LFE52:
 2384               	.global	PIDGetError
 2386               	PIDGetError:
 2387               	.LFB53:
 2388               	.LM351:
 2389               	/* prologue: function */
 2390               	/* frame size = 0 */
 2391               	/* stack size = 0 */
 2392               	.L__stack_usage = 0
 2393               	.LM352:
 2394 0e5e 0E94 0000 		call SensorReadDigital
 2395               	.LVL78:
 2396               	.LBB304:
 2397               	.LM353:
 2398 0e62 5091 0000 		lds r21,gCaseN
 2399               	.LM354:
 2400 0e66 4091 0000 		lds r20,gSensH
 2401 0e6a 3091 0000 		lds r19,gSensL
 2402               	.LM355:
 2403 0e6e 20E0      		ldi r18,lo8(0)
 2404               	.LVL79:
 2405               	.L124:
 2406               	.LM356:
 2407 0e70 822F      		mov r24,r18
 2408 0e72 90E0      		ldi r25,lo8(0)
 2409 0e74 FC01      		movw r30,r24
 2410 0e76 E050      		subi r30,lo8(-(gCaseH))
 2411 0e78 F040      		sbci r31,hi8(-(gCaseH))
 2412 0e7a 6081      		ld r22,Z
 2413 0e7c 4617      		cp r20,r22
 2414 0e7e 01F4      		brne .L122
 2415               	.LM357:
 2416 0e80 FC01      		movw r30,r24
 2417 0e82 E050      		subi r30,lo8(-(gCaseL))
 2418 0e84 F040      		sbci r31,hi8(-(gCaseL))
 2419 0e86 6081      		ld r22,Z
 2420 0e88 3617      		cp r19,r22
 2421 0e8a 01F4      		brne .L122
 2422               	.LM358:
 2423 0e8c 8050      		subi r24,lo8(-(gCaseV))
 2424 0e8e 9040      		sbci r25,hi8(-(gCaseV))
 2425 0e90 FC01      		movw r30,r24
 2426 0e92 8081      		ld r24,Z
 2427 0e94 8093 0000 		sts gDriveError,r24
 2428               	.LM359:
 2429 0e98 81E0      		ldi r24,lo8(1)
 2430 0e9a 0895      		ret
 2431               	.L122:
 2432               	.LM360:
 2433 0e9c 2F5F      		subi r18,lo8(-(1))
 2434               	.LVL80:
 2435 0e9e 5217      		cp r21,r18
 2436 0ea0 00F4      		brsh .L124
 2437               	.LM361:
 2438 0ea2 80E0      		ldi r24,lo8(0)
 2439               	.LBE304:
 2440               	.LM362:
 2441 0ea4 0895      		ret
 2442               	.LFE53:
 2444               	.global	DirForward
 2446               	DirForward:
 2447               	.LFB56:
 2448               	.LM363:
 2449               	/* prologue: function */
 2450               	/* frame size = 0 */
 2451               	/* stack size = 0 */
 2452               	.L__stack_usage = 0
 2453               	.LM364:
 2454 0ea6 82B3      		in r24,50-32
 2455 0ea8 837F      		andi r24,lo8(-13)
 2456 0eaa 8460      		ori r24,lo8(4)
 2457 0eac 82BB      		out 50-32,r24
 2458               	/* epilogue start */
 2459               	.LM365:
 2460 0eae 0895      		ret
 2461               	.LFE56:
 2463               	.global	DirBackward
 2465               	DirBackward:
 2466               	.LFB57:
 2467               	.LM366:
 2468               	/* prologue: function */
 2469               	/* frame size = 0 */
 2470               	/* stack size = 0 */
 2471               	.L__stack_usage = 0
 2472               	.LM367:
 2473 0eb0 82B3      		in r24,50-32
 2474 0eb2 837F      		andi r24,lo8(-13)
 2475 0eb4 8860      		ori r24,lo8(8)
 2476 0eb6 82BB      		out 50-32,r24
 2477               	/* epilogue start */
 2478               	.LM368:
 2479 0eb8 0895      		ret
 2480               	.LFE57:
 2482               	.global	DirTurnLeft
 2484               	DirTurnLeft:
 2485               	.LFB58:
 2486               	.LM369:
 2487               	/* prologue: function */
 2488               	/* frame size = 0 */
 2489               	/* stack size = 0 */
 2490               	.L__stack_usage = 0
 2491               	.LM370:
 2492 0eba 82B3      		in r24,50-32
 2493 0ebc 8C60      		ori r24,lo8(12)
 2494 0ebe 82BB      		out 50-32,r24
 2495               	/* epilogue start */
 2496               	.LM371:
 2497 0ec0 0895      		ret
 2498               	.LFE58:
 2500               	.global	DirTurnRight
 2502               	DirTurnRight:
 2503               	.LFB59:
 2504               	.LM372:
 2505               	/* prologue: function */
 2506               	/* frame size = 0 */
 2507               	/* stack size = 0 */
 2508               	.L__stack_usage = 0
 2509               	.LM373:
 2510 0ec2 82B3      		in r24,50-32
 2511 0ec4 837F      		andi r24,lo8(-13)
 2512 0ec6 82BB      		out 50-32,r24
 2513               	/* epilogue start */
 2514               	.LM374:
 2515 0ec8 0895      		ret
 2516               	.LFE59:
 2518               	.global	PIDCalculateExecuteCustom
 2520               	PIDCalculateExecuteCustom:
 2521               	.LFB55:
 2522               	.LM375:
 2523               	.LVL81:
 2524 0eca 0F93      		push r16
 2525 0ecc 1F93      		push r17
 2526 0ece CF93      		push r28
 2527 0ed0 DF93      		push r29
 2528               	/* prologue: function */
 2529               	/* frame size = 0 */
 2530               	/* stack size = 4 */
 2531               	.L__stack_usage = 4
 2532               	.LM376:
 2533 0ed2 A091 0000 		lds r26,gDriveError
 2534 0ed6 2A2F      		mov r18,r26
 2535 0ed8 3327      		clr r19
 2536 0eda 27FD      		sbrc r18,7
 2537 0edc 3095      		com r19
 2538 0ede 70E0      		ldi r23,lo8(0)
 2539 0ee0 629F      		mul r22,r18
 2540 0ee2 F001      		movw r30,r0
 2541 0ee4 639F      		mul r22,r19
 2542 0ee6 F00D      		add r31,r0
 2543 0ee8 729F      		mul r23,r18
 2544 0eea F00D      		add r31,r0
 2545 0eec 1124      		clr r1
 2546               	.LVL82:
 2547               	.LM377:
 2548 0eee 50E0      		ldi r21,lo8(0)
 2549 0ef0 6091 0000 		lds r22,gDriveLastError
 2550               	.LVL83:
 2551 0ef4 7727      		clr r23
 2552 0ef6 67FD      		sbrc r22,7
 2553 0ef8 7095      		com r23
 2554 0efa E901      		movw r28,r18
 2555 0efc C61B      		sub r28,r22
 2556 0efe D70B      		sbc r29,r23
 2557 0f00 4C9F      		mul r20,r28
 2558 0f02 9001      		movw r18,r0
 2559 0f04 4D9F      		mul r20,r29
 2560 0f06 300D      		add r19,r0
 2561 0f08 5C9F      		mul r21,r28
 2562 0f0a 300D      		add r19,r0
 2563 0f0c 1124      		clr r1
 2564               	.LVL84:
 2565               	.LM378:
 2566 0f0e 90E0      		ldi r25,lo8(0)
 2567 0f10 AC01      		movw r20,r24
 2568               	.LVL85:
 2569 0f12 4E1B      		sub r20,r30
 2570 0f14 5F0B      		sbc r21,r31
 2571 0f16 421B      		sub r20,r18
 2572 0f18 530B      		sbc r21,r19
 2573 0f1a 5093 0000 		sts gDriveSpeedLeft+1,r21
 2574 0f1e 4093 0000 		sts gDriveSpeedLeft,r20
 2575               	.LM379:
 2576 0f22 E80F      		add r30,r24
 2577 0f24 F91F      		adc r31,r25
 2578               	.LVL86:
 2579 0f26 E20F      		add r30,r18
 2580 0f28 F31F      		adc r31,r19
 2581 0f2a F093 0000 		sts gDriveSpeedRight+1,r31
 2582 0f2e E093 0000 		sts gDriveSpeedRight,r30
 2583               	.LM380:
 2584 0f32 2091 0000 		lds r18,gDriveLimit
 2585               	.LVL87:
 2586 0f36 822F      		mov r24,r18
 2587               	.LVL88:
 2588 0f38 90E0      		ldi r25,lo8(0)
 2589 0f3a 8E17      		cp r24,r30
 2590 0f3c 9F07      		cpc r25,r31
 2591 0f3e 04F4      		brge .L138
 2592               	.LM381:
 2593 0f40 322F      		mov r19,r18
 2594 0f42 00C0      		rjmp .L131
 2595               	.L138:
 2596               	.LM382:
 2597 0f44 30E0      		ldi r19,lo8(0)
 2598               	.L131:
 2599               	.LVL89:
 2600               	.LM383:
 2601 0f46 8417      		cp r24,r20
 2602 0f48 9507      		cpc r25,r21
 2603 0f4a 04F0      		brlt .L132
 2604               	.LM384:
 2605 0f4c 20E0      		ldi r18,lo8(0)
 2606               	.L132:
 2607               	.LVL90:
 2608               	.LM385:
 2609 0f4e 0E2F      		mov r16,r30
 2610 0f50 021B      		sub r16,r18
 2611               	.LVL91:
 2612               	.LM386:
 2613 0f52 142F      		mov r17,r20
 2614 0f54 131B      		sub r17,r19
 2615               	.LVL92:
 2616               	.LM387:
 2617 0f56 A093 0000 		sts gDriveLastError,r26
 2618               	.LM388:
 2619 0f5a 57FD      		sbrc r21,7
 2620 0f5c 00C0      		rjmp .L133
 2621               	.LM389:
 2622 0f5e F7FD      		sbrc r31,7
 2623 0f60 00C0      		rjmp .L133
 2624               	.LM390:
 2625 0f62 0E94 0000 		call DirForward
 2626               	.LVL93:
 2627               	.L133:
 2628               	.LM391:
 2629 0f66 4091 0000 		lds r20,gDriveSpeedLeft
 2630 0f6a 5091 0000 		lds r21,gDriveSpeedLeft+1
 2631 0f6e 57FD      		sbrc r21,7
 2632 0f70 00C0      		rjmp .L134
 2633               	.LM392:
 2634 0f72 4091 0000 		lds r20,gDriveSpeedRight
 2635 0f76 5091 0000 		lds r21,gDriveSpeedRight+1
 2636 0f7a 57FF      		sbrs r21,7
 2637 0f7c 00C0      		rjmp .L134
 2638               	.LM393:
 2639 0f7e 0E94 0000 		call DirTurnRight
 2640               	.L134:
 2641               	.LM394:
 2642 0f82 4091 0000 		lds r20,gDriveSpeedLeft
 2643 0f86 5091 0000 		lds r21,gDriveSpeedLeft+1
 2644 0f8a 57FF      		sbrs r21,7
 2645 0f8c 00C0      		rjmp .L135
 2646               	.LM395:
 2647 0f8e 4091 0000 		lds r20,gDriveSpeedRight
 2648 0f92 5091 0000 		lds r21,gDriveSpeedRight+1
 2649 0f96 57FD      		sbrc r21,7
 2650 0f98 00C0      		rjmp .L135
 2651               	.LM396:
 2652 0f9a 0E94 0000 		call DirTurnLeft
 2653               	.L135:
 2654               	.LM397:
 2655 0f9e 9091 0000 		lds r25,gDriveLimit
 2656               	.LVL94:
 2657               	.LM398:
 2658 0fa2 9017      		cp r25,r16
 2659 0fa4 00F4      		brsh .L136
 2660 0fa6 092F      		mov r16,r25
 2661               	.LVL95:
 2662               	.L136:
 2663 0fa8 202F      		mov r18,r16
 2664 0faa 30E0      		ldi r19,lo8(0)
 2665 0fac 39BD      		out 72+1-32,r19
 2666 0fae 28BD      		out 72-32,r18
 2667               	.LM399:
 2668 0fb0 9117      		cp r25,r17
 2669 0fb2 00F4      		brsh .L137
 2670 0fb4 192F      		mov r17,r25
 2671               	.LVL96:
 2672               	.L137:
 2673 0fb6 812F      		mov r24,r17
 2674 0fb8 90E0      		ldi r25,lo8(0)
 2675 0fba 9BBD      		out 74+1-32,r25
 2676 0fbc 8ABD      		out 74-32,r24
 2677               	/* epilogue start */
 2678               	.LM400:
 2679 0fbe DF91      		pop r29
 2680 0fc0 CF91      		pop r28
 2681 0fc2 1F91      		pop r17
 2682 0fc4 0F91      		pop r16
 2683 0fc6 0895      		ret
 2684               	.LFE55:
 2686               	.global	PIDCalculateExecute
 2688               	PIDCalculateExecute:
 2689               	.LFB54:
 2690               	.LM401:
 2691 0fc8 0F93      		push r16
 2692 0fca 1F93      		push r17
 2693               	/* prologue: function */
 2694               	/* frame size = 0 */
 2695               	/* stack size = 2 */
 2696               	.L__stack_usage = 2
 2697               	.LM402:
 2698 0fcc E091 0000 		lds r30,gDriveError
 2699 0fd0 8E2F      		mov r24,r30
 2700 0fd2 9927      		clr r25
 2701 0fd4 87FD      		sbrc r24,7
 2702 0fd6 9095      		com r25
 2703 0fd8 2091 0000 		lds r18,gDriveKP
 2704 0fdc 3091 0000 		lds r19,gDriveKP+1
 2705 0fe0 829F      		mul r24,r18
 2706 0fe2 B001      		movw r22,r0
 2707 0fe4 839F      		mul r24,r19
 2708 0fe6 700D      		add r23,r0
 2709 0fe8 929F      		mul r25,r18
 2710 0fea 700D      		add r23,r0
 2711 0fec 1124      		clr r1
 2712               	.LVL97:
 2713               	.LM403:
 2714 0fee 2091 0000 		lds r18,gDriveLastError
 2715 0ff2 3327      		clr r19
 2716 0ff4 27FD      		sbrc r18,7
 2717 0ff6 3095      		com r19
 2718 0ff8 821B      		sub r24,r18
 2719 0ffa 930B      		sbc r25,r19
 2720 0ffc 2091 0000 		lds r18,gDriveKD
 2721 1000 3091 0000 		lds r19,gDriveKD+1
 2722 1004 829F      		mul r24,r18
 2723 1006 A001      		movw r20,r0
 2724 1008 839F      		mul r24,r19
 2725 100a 500D      		add r21,r0
 2726 100c 929F      		mul r25,r18
 2727 100e 500D      		add r21,r0
 2728 1010 1124      		clr r1
 2729               	.LVL98:
 2730               	.LM404:
 2731 1012 8091 0000 		lds r24,gDriveSpeed
 2732 1016 90E0      		ldi r25,lo8(0)
 2733 1018 9C01      		movw r18,r24
 2734 101a 261B      		sub r18,r22
 2735 101c 370B      		sbc r19,r23
 2736 101e 241B      		sub r18,r20
 2737 1020 350B      		sbc r19,r21
 2738 1022 3093 0000 		sts gDriveSpeedLeft+1,r19
 2739 1026 2093 0000 		sts gDriveSpeedLeft,r18
 2740               	.LM405:
 2741 102a 860F      		add r24,r22
 2742 102c 971F      		adc r25,r23
 2743 102e 840F      		add r24,r20
 2744 1030 951F      		adc r25,r21
 2745 1032 9093 0000 		sts gDriveSpeedRight+1,r25
 2746 1036 8093 0000 		sts gDriveSpeedRight,r24
 2747               	.LM406:
 2748 103a 6091 0000 		lds r22,gDriveLimit
 2749               	.LVL99:
 2750 103e 462F      		mov r20,r22
 2751               	.LVL100:
 2752 1040 50E0      		ldi r21,lo8(0)
 2753 1042 4817      		cp r20,r24
 2754 1044 5907      		cpc r21,r25
 2755 1046 04F4      		brge .L148
 2756               	.LM407:
 2757 1048 762F      		mov r23,r22
 2758 104a 00C0      		rjmp .L141
 2759               	.L148:
 2760               	.LM408:
 2761 104c 70E0      		ldi r23,lo8(0)
 2762               	.L141:
 2763               	.LVL101:
 2764               	.LM409:
 2765 104e 4217      		cp r20,r18
 2766 1050 5307      		cpc r21,r19
 2767 1052 04F0      		brlt .L142
 2768               	.LM410:
 2769 1054 60E0      		ldi r22,lo8(0)
 2770               	.L142:
 2771               	.LVL102:
 2772               	.LM411:
 2773 1056 082F      		mov r16,r24
 2774 1058 061B      		sub r16,r22
 2775               	.LVL103:
 2776               	.LM412:
 2777 105a 122F      		mov r17,r18
 2778 105c 171B      		sub r17,r23
 2779               	.LVL104:
 2780               	.LM413:
 2781 105e E093 0000 		sts gDriveLastError,r30
 2782               	.LM414:
 2783 1062 37FD      		sbrc r19,7
 2784 1064 00C0      		rjmp .L143
 2785               	.LM415:
 2786 1066 97FD      		sbrc r25,7
 2787 1068 00C0      		rjmp .L143
 2788               	.LM416:
 2789 106a 0E94 0000 		call DirForward
 2790               	.LVL105:
 2791               	.L143:
 2792               	.LM417:
 2793 106e 4091 0000 		lds r20,gDriveSpeedLeft
 2794 1072 5091 0000 		lds r21,gDriveSpeedLeft+1
 2795 1076 57FD      		sbrc r21,7
 2796 1078 00C0      		rjmp .L144
 2797               	.LM418:
 2798 107a 4091 0000 		lds r20,gDriveSpeedRight
 2799 107e 5091 0000 		lds r21,gDriveSpeedRight+1
 2800 1082 57FF      		sbrs r21,7
 2801 1084 00C0      		rjmp .L144
 2802               	.LM419:
 2803 1086 0E94 0000 		call DirTurnRight
 2804               	.L144:
 2805               	.LM420:
 2806 108a 4091 0000 		lds r20,gDriveSpeedLeft
 2807 108e 5091 0000 		lds r21,gDriveSpeedLeft+1
 2808 1092 57FF      		sbrs r21,7
 2809 1094 00C0      		rjmp .L145
 2810               	.LM421:
 2811 1096 4091 0000 		lds r20,gDriveSpeedRight
 2812 109a 5091 0000 		lds r21,gDriveSpeedRight+1
 2813 109e 57FD      		sbrc r21,7
 2814 10a0 00C0      		rjmp .L145
 2815               	.LM422:
 2816 10a2 0E94 0000 		call DirTurnLeft
 2817               	.L145:
 2818               	.LM423:
 2819 10a6 9091 0000 		lds r25,gDriveLimit
 2820               	.LVL106:
 2821               	.LM424:
 2822 10aa 9017      		cp r25,r16
 2823 10ac 00F4      		brsh .L146
 2824 10ae 092F      		mov r16,r25
 2825               	.LVL107:
 2826               	.L146:
 2827 10b0 202F      		mov r18,r16
 2828 10b2 30E0      		ldi r19,lo8(0)
 2829 10b4 39BD      		out 72+1-32,r19
 2830 10b6 28BD      		out 72-32,r18
 2831               	.LM425:
 2832 10b8 9117      		cp r25,r17
 2833 10ba 00F4      		brsh .L147
 2834 10bc 192F      		mov r17,r25
 2835               	.LVL108:
 2836               	.L147:
 2837 10be 812F      		mov r24,r17
 2838 10c0 90E0      		ldi r25,lo8(0)
 2839 10c2 9BBD      		out 74+1-32,r25
 2840 10c4 8ABD      		out 74-32,r24
 2841               	/* epilogue start */
 2842               	.LM426:
 2843 10c6 1F91      		pop r17
 2844 10c8 0F91      		pop r16
 2845 10ca 0895      		ret
 2846               	.LFE54:
 2848               	.global	RunOnce
 2850               	RunOnce:
 2851               	.LFB31:
 2852               	.LM427:
 2853               	.LVL109:
 2854 10cc FF92      		push r15
 2855 10ce 0F93      		push r16
 2856 10d0 1F93      		push r17
 2857 10d2 CF93      		push r28
 2858 10d4 DF93      		push r29
 2859               	/* prologue: function */
 2860               	/* frame size = 0 */
 2861               	/* stack size = 5 */
 2862               	.L__stack_usage = 5
 2863 10d6 082F      		mov r16,r24
 2864 10d8 162F      		mov r17,r22
 2865 10da F42E      		mov r15,r20
 2866               	.LM428:
 2867 10dc 2091 0000 		lds r18,counter
 2868 10e0 3091 0000 		lds r19,counter+1
 2869 10e4 4091 0000 		lds r20,counter+2
 2870 10e8 5091 0000 		lds r21,counter+3
 2871 10ec 2F5F      		subi r18,lo8(-(1))
 2872 10ee 3F4F      		sbci r19,hi8(-(1))
 2873 10f0 4F4F      		sbci r20,hlo8(-(1))
 2874 10f2 5F4F      		sbci r21,hhi8(-(1))
 2875 10f4 2093 0000 		sts counter,r18
 2876 10f8 3093 0000 		sts counter+1,r19
 2877 10fc 4093 0000 		sts counter+2,r20
 2878 1100 5093 0000 		sts counter+3,r21
 2879               	.LM429:
 2880 1104 8091 0000 		lds r24,gSensH
 2881               	.LVL110:
 2882 1108 8823      		tst r24
 2883 110a 01F0      		breq .+2
 2884 110c 00C0      		rjmp .L151
 2885               	.LVL111:
 2886               	.LM430:
 2887 110e 8091 0000 		lds r24,gSensL
 2888 1112 8823      		tst r24
 2889 1114 01F0      		breq .+2
 2890 1116 00C0      		rjmp .L151
 2891               	.LM431:
 2892 1118 8091 0000 		lds r24,gSensA
 2893 111c 60E0      		ldi r22,lo8(0)
 2894 111e 0E94 0000 		call isset
 2895 1122 8823      		tst r24
 2896 1124 01F0      		breq .L152
 2897               	.LM432:
 2898 1126 8091 0000 		lds r24,gSensA
 2899 112a 61E0      		ldi r22,lo8(1)
 2900 112c 0E94 0000 		call isclear
 2901 1130 8823      		tst r24
 2902 1132 01F4      		brne .L153
 2903 1134 00C0      		rjmp .L152
 2904               	.L154:
 2905               	.LM433:
 2906 1136 0E94 0000 		call SensorReadDigital
 2907               	.LM434:
 2908 113a 0E94 0000 		call DirTurnLeft
 2909               	.LVL112:
 2910               	.LBB305:
 2911               	.LBB306:
 2912               	.LM435:
 2913 113e D9BD      		out 72+1-32,r29
 2914 1140 C8BD      		out 72-32,r28
 2915               	.LM436:
 2916 1142 DBBD      		out 74+1-32,r29
 2917 1144 CABD      		out 74-32,r28
 2918 1146 00C0      		rjmp .L159
 2919               	.LVL113:
 2920               	.L153:
 2921               	.LM437:
 2922 1148 CEE1      		ldi r28,lo8(30)
 2923 114a D0E0      		ldi r29,hi8(30)
 2924               	.L159:
 2925               	.LBE306:
 2926               	.LBE305:
 2927               	.LM438:
 2928 114c 8091 0000 		lds r24,gSensL
 2929 1150 8823      		tst r24
 2930 1152 01F4      		brne .L151
 2931               	.LM439:
 2932 1154 8091 0000 		lds r24,gSensH
 2933 1158 8823      		tst r24
 2934 115a 01F0      		breq .L154
 2935 115c 00C0      		rjmp .L151
 2936               	.L152:
 2937               	.LM440:
 2938 115e 8091 0000 		lds r24,gSensA
 2939 1162 61E0      		ldi r22,lo8(1)
 2940 1164 0E94 0000 		call isset
 2941 1168 8823      		tst r24
 2942 116a 01F0      		breq .L151
 2943               	.LM441:
 2944 116c 8091 0000 		lds r24,gSensA
 2945 1170 60E0      		ldi r22,lo8(0)
 2946 1172 0E94 0000 		call isclear
 2947 1176 8823      		tst r24
 2948 1178 01F4      		brne .L155
 2949 117a 00C0      		rjmp .L151
 2950               	.L156:
 2951               	.LM442:
 2952 117c 0E94 0000 		call SensorReadDigital
 2953               	.LM443:
 2954 1180 0E94 0000 		call DirTurnRight
 2955               	.LVL114:
 2956               	.LBB307:
 2957               	.LBB308:
 2958               	.LM444:
 2959 1184 D9BD      		out 72+1-32,r29
 2960 1186 C8BD      		out 72-32,r28
 2961               	.LM445:
 2962 1188 DBBD      		out 74+1-32,r29
 2963 118a CABD      		out 74-32,r28
 2964 118c 00C0      		rjmp .L160
 2965               	.LVL115:
 2966               	.L155:
 2967               	.LM446:
 2968 118e CEE1      		ldi r28,lo8(30)
 2969 1190 D0E0      		ldi r29,hi8(30)
 2970               	.L160:
 2971               	.LBE308:
 2972               	.LBE307:
 2973               	.LM447:
 2974 1192 8091 0000 		lds r24,gSensL
 2975 1196 8823      		tst r24
 2976 1198 01F4      		brne .L151
 2977               	.LM448:
 2978 119a 8091 0000 		lds r24,gSensH
 2979 119e 8823      		tst r24
 2980 11a0 01F0      		breq .L156
 2981               	.L151:
 2982               	.LM449:
 2983 11a2 0E94 0000 		call PIDGetError
 2984 11a6 8823      		tst r24
 2985 11a8 01F0      		breq .L157
 2986               	.LM450:
 2987 11aa 802F      		mov r24,r16
 2988 11ac 612F      		mov r22,r17
 2989 11ae 4F2D      		mov r20,r15
 2990 11b0 0E94 0000 		call PIDCalculateExecuteCustom
 2991 11b4 00C0      		rjmp .L150
 2992               	.L157:
 2993               	.LM451:
 2994 11b6 0E94 0000 		call DirForward
 2995               	.LM452:
 2996 11ba 88E2      		ldi r24,lo8(40)
 2997 11bc 90E0      		ldi r25,hi8(40)
 2998 11be 9BBD      		out 74+1-32,r25
 2999 11c0 8ABD      		out 74-32,r24
 3000               	.LM453:
 3001 11c2 99BD      		out 72+1-32,r25
 3002 11c4 88BD      		out 72-32,r24
 3003               	.L150:
 3004               	/* epilogue start */
 3005               	.LM454:
 3006 11c6 DF91      		pop r29
 3007 11c8 CF91      		pop r28
 3008 11ca 1F91      		pop r17
 3009               	.LVL116:
 3010 11cc 0F91      		pop r16
 3011               	.LVL117:
 3012 11ce FF90      		pop r15
 3013               	.LVL118:
 3014 11d0 0895      		ret
 3015               	.LFE31:
 3017               	.global	RunC02ke03
 3019               	RunC02ke03:
 3020               	.LFB21:
 3021               	.LM455:
 3022 11d2 1F93      		push r17
 3023               	/* prologue: function */
 3024               	/* frame size = 0 */
 3025               	/* stack size = 1 */
 3026               	.L__stack_usage = 1
 3027               	.LM456:
 3028 11d4 1091 0000 		lds r17,gCaseN
 3029               	.LVL119:
 3030               	.LM457:
 3031 11d8 8EE1      		ldi r24,lo8(30)
 3032 11da 8093 0000 		sts gCaseN,r24
 3033               	.LM458:
 3034 11de 1092 0000 		sts counter,__zero_reg__
 3035 11e2 1092 0000 		sts counter+1,__zero_reg__
 3036 11e6 1092 0000 		sts counter+2,__zero_reg__
 3037 11ea 1092 0000 		sts counter+3,__zero_reg__
 3038               	.LM459:
 3039 11ee 0E94 0000 		call SensorReadDigital
 3040               	.LVL120:
 3041               	.LM460:
 3042 11f2 00C0      		rjmp .L162
 3043               	.L163:
 3044               	.LM461:
 3045 11f4 8091 0000 		lds r24,gDriveSpeed
 3046 11f8 6091 0000 		lds r22,gDriveKP
 3047 11fc 4091 0000 		lds r20,gDriveKD
 3048 1200 0E94 0000 		call RunOnce
 3049               	.L162:
 3050               	.LM462:
 3051 1204 8091 0000 		lds r24,counter
 3052 1208 9091 0000 		lds r25,counter+1
 3053 120c A091 0000 		lds r26,counter+2
 3054 1210 B091 0000 		lds r27,counter+3
 3055 1214 8132      		cpi r24,lo8(801)
 3056 1216 23E0      		ldi r18,hi8(801)
 3057 1218 9207      		cpc r25,r18
 3058 121a 20E0      		ldi r18,hlo8(801)
 3059 121c A207      		cpc r26,r18
 3060 121e 20E0      		ldi r18,hhi8(801)
 3061 1220 B207      		cpc r27,r18
 3062 1222 00F0      		brlo .L163
 3063               	.LM463:
 3064 1224 1093 0000 		sts gCaseN,r17
 3065               	.LM464:
 3066 1228 1092 0000 		sts counter,__zero_reg__
 3067 122c 1092 0000 		sts counter+1,__zero_reg__
 3068 1230 1092 0000 		sts counter+2,__zero_reg__
 3069 1234 1092 0000 		sts counter+3,__zero_reg__
 3070               	/* epilogue start */
 3071               	.LM465:
 3072 1238 1F91      		pop r17
 3073               	.LVL121:
 3074 123a 0895      		ret
 3075               	.LFE21:
 3077               	.global	RunC01ke02
 3079               	RunC01ke02:
 3080               	.LFB20:
 3081               	.LM466:
 3082 123c 1F93      		push r17
 3083               	/* prologue: function */
 3084               	/* frame size = 0 */
 3085               	/* stack size = 1 */
 3086               	.L__stack_usage = 1
 3087               	.LM467:
 3088 123e 1091 0000 		lds r17,gCaseN
 3089               	.LVL122:
 3090               	.LM468:
 3091 1242 84E2      		ldi r24,lo8(36)
 3092 1244 8093 0000 		sts gCaseN,r24
 3093               	.LM469:
 3094 1248 1092 0000 		sts counter,__zero_reg__
 3095 124c 1092 0000 		sts counter+1,__zero_reg__
 3096 1250 1092 0000 		sts counter+2,__zero_reg__
 3097 1254 1092 0000 		sts counter+3,__zero_reg__
 3098               	.LM470:
 3099 1258 0E94 0000 		call SensorReadDigital
 3100               	.LVL123:
 3101               	.LM471:
 3102 125c 00C0      		rjmp .L165
 3103               	.L166:
 3104               	.LM472:
 3105 125e 8091 0000 		lds r24,gDriveSpeed
 3106 1262 6091 0000 		lds r22,gDriveKP
 3107 1266 4091 0000 		lds r20,gDriveKD
 3108 126a 0E94 0000 		call RunOnce
 3109               	.L165:
 3110               	.LM473:
 3111 126e 8091 0000 		lds r24,counter
 3112 1272 9091 0000 		lds r25,counter+1
 3113 1276 A091 0000 		lds r26,counter+2
 3114 127a B091 0000 		lds r27,counter+3
 3115 127e 8138      		cpi r24,lo8(3201)
 3116 1280 2CE0      		ldi r18,hi8(3201)
 3117 1282 9207      		cpc r25,r18
 3118 1284 20E0      		ldi r18,hlo8(3201)
 3119 1286 A207      		cpc r26,r18
 3120 1288 20E0      		ldi r18,hhi8(3201)
 3121 128a B207      		cpc r27,r18
 3122 128c 00F0      		brlo .L166
 3123               	.LM474:
 3124 128e 1093 0000 		sts gCaseN,r17
 3125               	.LM475:
 3126 1292 1092 0000 		sts counter,__zero_reg__
 3127 1296 1092 0000 		sts counter+1,__zero_reg__
 3128 129a 1092 0000 		sts counter+2,__zero_reg__
 3129 129e 1092 0000 		sts counter+3,__zero_reg__
 3130               	/* epilogue start */
 3131               	.LM476:
 3132 12a2 1F91      		pop r17
 3133               	.LVL124:
 3134 12a4 0895      		ret
 3135               	.LFE20:
 3137               	.global	RunProgram
 3139               	RunProgram:
 3140               	.LFB23:
 3141               	.LM477:
 3142               	/* prologue: function */
 3143               	/* frame size = 0 */
 3144               	/* stack size = 0 */
 3145               	.L__stack_usage = 0
 3146               	.LM478:
 3147 12a6 1092 0000 		sts counter,__zero_reg__
 3148 12aa 1092 0000 		sts counter+1,__zero_reg__
 3149 12ae 1092 0000 		sts counter+2,__zero_reg__
 3150 12b2 1092 0000 		sts counter+3,__zero_reg__
 3151               	.LM479:
 3152 12b6 0E94 0000 		call SensorReadDigital
 3153               	.LM480:
 3154 12ba 00C0      		rjmp .L176
 3155               	.L171:
 3156               	.LM481:
 3157 12bc 8091 0000 		lds r24,gDriveSpeed
 3158 12c0 6091 0000 		lds r22,gDriveKP
 3159 12c4 4091 0000 		lds r20,gDriveKD
 3160 12c8 0E94 0000 		call RunOnce
 3161               	.LM482:
 3162 12cc 0E94 0000 		call PIDGetError
 3163 12d0 8823      		tst r24
 3164 12d2 01F4      		brne .L176
 3165               	.LM483:
 3166 12d4 8091 0000 		lds r24,counter
 3167 12d8 9091 0000 		lds r25,counter+1
 3168 12dc A091 0000 		lds r26,counter+2
 3169 12e0 B091 0000 		lds r27,counter+3
 3170 12e4 0196      		adiw r24,1
 3171 12e6 A11D      		adc r26,__zero_reg__
 3172 12e8 B11D      		adc r27,__zero_reg__
 3173 12ea 8093 0000 		sts counter,r24
 3174 12ee 9093 0000 		sts counter+1,r25
 3175 12f2 A093 0000 		sts counter+2,r26
 3176 12f6 B093 0000 		sts counter+3,r27
 3177               	.L176:
 3178               	.LM484:
 3179 12fa 0E94 0000 		call PIDGetError
 3180 12fe 8823      		tst r24
 3181 1300 01F0      		breq .L170
 3182               	.LM485:
 3183 1302 8091 0000 		lds r24,counter
 3184 1306 9091 0000 		lds r25,counter+1
 3185 130a A091 0000 		lds r26,counter+2
 3186 130e B091 0000 		lds r27,counter+3
 3187 1312 8233      		cpi r24,lo8(50)
 3188 1314 9105      		cpc r25,__zero_reg__
 3189 1316 A105      		cpc r26,__zero_reg__
 3190 1318 B105      		cpc r27,__zero_reg__
 3191 131a 00F0      		brlo .L171
 3192               	.L170:
 3193               	.LVL125:
 3194               	.LBB309:
 3195               	.LBB310:
 3196               	.LM486:
 3197 131c 19BC      		out 72+1-32,__zero_reg__
 3198 131e 18BC      		out 72-32,__zero_reg__
 3199               	.LM487:
 3200 1320 1BBC      		out 74+1-32,__zero_reg__
 3201 1322 1ABC      		out 74-32,__zero_reg__
 3202               	.L172:
 3203               	.LBE310:
 3204               	.LBE309:
 3205               	.LM488:
 3206 1324 0E94 0000 		call ButtonIsNotPressed
 3207 1328 8823      		tst r24
 3208 132a 01F4      		brne .L172
 3209               	/* epilogue start */
 3210               	.LM489:
 3211 132c 0895      		ret
 3212               	.LFE23:
 3214               		.data
 3215               	.LC4:
 3216 0027 4C4F 4720 		.string	"LOG RUNWHILE ERR"
 3216      5255 4E57 
 3216      4849 4C45 
 3216      2045 5252 
 3216      00
 3217               		.text
 3218               	.global	RunWhileNormal
 3220               	RunWhileNormal:
 3221               	.LFB24:
 3222               	.LM490:
 3223               	.LVL126:
 3224 132e AF92      		push r10
 3225 1330 BF92      		push r11
 3226 1332 CF92      		push r12
 3227 1334 DF92      		push r13
 3228 1336 EF92      		push r14
 3229 1338 FF92      		push r15
 3230 133a 0F93      		push r16
 3231 133c 1F93      		push r17
 3232 133e DF93      		push r29
 3233 1340 CF93      		push r28
 3234 1342 CDB7      		in r28,__SP_L__
 3235 1344 DEB7      		in r29,__SP_H__
 3236               	/* prologue: function */
 3237               	/* frame size = 0 */
 3238               	/* stack size = 10 */
 3239               	.L__stack_usage = 10
 3240 1346 C82E      		mov r12,r24
 3241               	.LM491:
 3242 1348 ADB6      		in r10,__SP_L__
 3243 134a BEB6      		in r11,__SP_H__
 3244               	.LM492:
 3245 134c 1092 0000 		sts counter,__zero_reg__
 3246 1350 1092 0000 		sts counter+1,__zero_reg__
 3247 1354 1092 0000 		sts counter+2,__zero_reg__
 3248 1358 1092 0000 		sts counter+3,__zero_reg__
 3249               	.LM493:
 3250 135c 0E94 0000 		call SensorReadDigital
 3251               	.LVL127:
 3252               	.LM494:
 3253 1360 2C2D      		mov r18,r12
 3254 1362 30E0      		ldi r19,lo8(0)
 3255 1364 2F5F      		subi r18,lo8(-(1))
 3256 1366 3F4F      		sbci r19,hi8(-(1))
 3257 1368 220F      		lsl r18
 3258 136a 331F      		rol r19
 3259 136c 220F      		lsl r18
 3260 136e 331F      		rol r19
 3261 1370 8DB7      		in r24,__SP_L__
 3262 1372 9EB7      		in r25,__SP_H__
 3263 1374 821B      		sub r24,r18
 3264 1376 930B      		sbc r25,r19
 3265 1378 0FB6      		in __tmp_reg__,__SREG__
 3266 137a F894      		cli
 3267 137c 9EBF      		out __SP_H__,r25
 3268 137e 0FBE      		out __SREG__,__tmp_reg__
 3269 1380 8DBF      		out __SP_L__,r24
 3270 1382 0DB7      		in r16,__SP_L__
 3271 1384 1EB7      		in r17,__SP_H__
 3272 1386 0F5F      		subi r16,lo8(-(1))
 3273 1388 1F4F      		sbci r17,hi8(-(1))
 3274               	.LVL128:
 3275               	.LM495:
 3276 138a DD24      		clr r13
 3277 138c EE24      		clr r14
 3278 138e FF24      		clr r15
 3279 1390 00C0      		rjmp .L182
 3280               	.L181:
 3281               	.LM496:
 3282 1392 8091 0000 		lds r24,gDriveSpeed
 3283 1396 6091 0000 		lds r22,gDriveKP
 3284 139a 4091 0000 		lds r20,gDriveKD
 3285 139e 0E94 0000 		call RunOnce
 3286               	.LM497:
 3287 13a2 0E94 0000 		call PIDGetError
 3288 13a6 8823      		tst r24
 3289 13a8 01F4      		brne .L179
 3290               	.LM498:
 3291 13aa 2091 0000 		lds r18,gSensH
 3292 13ae 2223      		tst r18
 3293 13b0 01F0      		breq .L179
 3294 13b2 3091 0000 		lds r19,gSensL
 3295 13b6 3323      		tst r19
 3296 13b8 01F0      		breq .L179
 3297               	.LM499:
 3298 13ba 8091 0000 		lds r24,counter
 3299 13be 9091 0000 		lds r25,counter+1
 3300 13c2 A091 0000 		lds r26,counter+2
 3301 13c6 B091 0000 		lds r27,counter+3
 3302 13ca 0196      		adiw r24,1
 3303 13cc A11D      		adc r26,__zero_reg__
 3304 13ce B11D      		adc r27,__zero_reg__
 3305 13d0 8093 0000 		sts counter,r24
 3306 13d4 9093 0000 		sts counter+1,r25
 3307 13d8 A093 0000 		sts counter+2,r26
 3308 13dc B093 0000 		sts counter+3,r27
 3309               	.LM500:
 3310 13e0 F801      		movw r30,r16
 3311 13e2 3083      		st Z,r19
 3312               	.LM501:
 3313 13e4 2183      		std Z+1,r18
 3314 13e6 00C0      		rjmp .L182
 3315               	.L179:
 3316               	.LM502:
 3317 13e8 1092 0000 		sts counter,__zero_reg__
 3318 13ec 1092 0000 		sts counter+1,__zero_reg__
 3319 13f0 1092 0000 		sts counter+2,__zero_reg__
 3320 13f4 1092 0000 		sts counter+3,__zero_reg__
 3321               	.L182:
 3322               	.LM503:
 3323 13f8 8091 0000 		lds r24,counter
 3324 13fc 9091 0000 		lds r25,counter+1
 3325 1400 A091 0000 		lds r26,counter+2
 3326 1404 B091 0000 		lds r27,counter+3
 3327 1408 8C15      		cp r24,r12
 3328 140a 9D05      		cpc r25,r13
 3329 140c AE05      		cpc r26,r14
 3330 140e BF05      		cpc r27,r15
 3331 1410 00F4      		brsh .+2
 3332 1412 00C0      		rjmp .L181
 3333               	.LVL129:
 3334               	.LBB311:
 3335               	.LBB312:
 3336               	.LM504:
 3337 1414 19BC      		out 72+1-32,__zero_reg__
 3338 1416 18BC      		out 72-32,__zero_reg__
 3339               	.LM505:
 3340 1418 1BBC      		out 74+1-32,__zero_reg__
 3341 141a 1ABC      		out 74-32,__zero_reg__
 3342               	.LBE312:
 3343               	.LBE311:
 3344               	.LM506:
 3345 141c 1092 0000 		sts counter,__zero_reg__
 3346 1420 1092 0000 		sts counter+1,__zero_reg__
 3347 1424 1092 0000 		sts counter+2,__zero_reg__
 3348 1428 1092 0000 		sts counter+3,__zero_reg__
 3349               	.LM507:
 3350 142c 80E0      		ldi r24,lo8(.LC4)
 3351 142e 90E0      		ldi r25,hi8(.LC4)
 3352 1430 B801      		movw r22,r16
 3353 1432 0E94 0000 		call SettingDebugPrintlog
 3354               	.LM508:
 3355 1436 0FB6      		in __tmp_reg__,__SREG__
 3356 1438 F894      		cli
 3357 143a BEBE      		out __SP_H__,r11
 3358 143c 0FBE      		out __SREG__,__tmp_reg__
 3359 143e ADBE      		out __SP_L__,r10
 3360               	/* epilogue start */
 3361 1440 CF91      		pop r28
 3362 1442 DF91      		pop r29
 3363 1444 1F91      		pop r17
 3364 1446 0F91      		pop r16
 3365               	.LVL130:
 3366 1448 FF90      		pop r15
 3367 144a EF90      		pop r14
 3368 144c DF90      		pop r13
 3369 144e CF90      		pop r12
 3370               	.LVL131:
 3371 1450 BF90      		pop r11
 3372 1452 AF90      		pop r10
 3373 1454 0895      		ret
 3374               	.LFE24:
 3376               	.global	RunLearn
 3378               	RunLearn:
 3379               	.LFB18:
 3380               	.LM509:
 3381               	/* prologue: function */
 3382               	/* frame size = 0 */
 3383               	/* stack size = 0 */
 3384               	.L__stack_usage = 0
 3385               	.LM510:
 3386 1456 85E0      		ldi r24,lo8(5)
 3387 1458 0E94 0000 		call RunWhileNormal
 3388               	/* epilogue start */
 3389               	.LM511:
 3390 145c 0895      		ret
 3391               	.LFE18:
 3393               	.global	Run
 3395               	Run:
 3396               	.LFB30:
 3397               	.LM512:
 3398 145e 0F93      		push r16
 3399 1460 1F93      		push r17
 3400 1462 CF93      		push r28
 3401 1464 DF93      		push r29
 3402               	/* prologue: function */
 3403               	/* frame size = 0 */
 3404               	/* stack size = 4 */
 3405               	.L__stack_usage = 4
 3406               	.LVL132:
 3407               	.LBB313:
 3408               	.LBB314:
 3409               	.LM513:
 3410 1466 8FEB      		 ldi r24,lo8(599999)
 3411 1468 97E2      	    ldi r25,hi8(599999)
 3412 146a A9E0      	    ldi r26,hlo8(599999)
 3413 146c 8150      	    1:subi r24,1
 3414 146e 9040      	    sbci r25,0
 3415 1470 A040      	    sbci r26,0
 3416 1472 01F4      	    brne 1b
 3417 1474 00C0      		rjmp .
 3418 1476 0000      		nop
 3419               	.LBE314:
 3420               	.LBE313:
 3421               	.LM514:
 3422 1478 0E94 0000 		call SensorReadDigital
 3423               	.LBB315:
 3424               	.LBB316:
 3425               	.LM515:
 3426 147c CEE1      		ldi r28,lo8(30)
 3427 147e D0E0      		ldi r29,hi8(30)
 3428               	.LBE316:
 3429               	.LBE315:
 3430               	.LM516:
 3431 1480 08E2      		ldi r16,lo8(40)
 3432 1482 10E0      		ldi r17,hi8(40)
 3433               	.LM517:
 3434 1484 00C0      		rjmp .L199
 3435               	.L194:
 3436               	.LM518:
 3437 1486 8091 0000 		lds r24,gSensH
 3438 148a 8823      		tst r24
 3439 148c 01F0      		breq .+2
 3440 148e 00C0      		rjmp .L186
 3441               	.LM519:
 3442 1490 8091 0000 		lds r24,gSensL
 3443 1494 8823      		tst r24
 3444 1496 01F0      		breq .+2
 3445 1498 00C0      		rjmp .L186
 3446               	.LM520:
 3447 149a 8091 0000 		lds r24,gSensA
 3448 149e 60E0      		ldi r22,lo8(0)
 3449 14a0 0E94 0000 		call isset
 3450 14a4 8823      		tst r24
 3451 14a6 01F0      		breq .L187
 3452               	.LM521:
 3453 14a8 8091 0000 		lds r24,gSensA
 3454 14ac 61E0      		ldi r22,lo8(1)
 3455 14ae 0E94 0000 		call isclear
 3456 14b2 8823      		tst r24
 3457 14b4 01F4      		brne .L197
 3458 14b6 00C0      		rjmp .L187
 3459               	.L189:
 3460               	.LM522:
 3461 14b8 0E94 0000 		call SensorReadDigital
 3462               	.LM523:
 3463 14bc 0E94 0000 		call DirTurnLeft
 3464               	.LVL133:
 3465               	.LBB318:
 3466               	.LBB319:
 3467               	.LM524:
 3468 14c0 D9BD      		out 72+1-32,r29
 3469 14c2 C8BD      		out 72-32,r28
 3470               	.LM525:
 3471 14c4 DBBD      		out 74+1-32,r29
 3472 14c6 CABD      		out 74-32,r28
 3473               	.LVL134:
 3474               	.L197:
 3475               	.LBE319:
 3476               	.LBE318:
 3477               	.LM526:
 3478 14c8 8091 0000 		lds r24,gSensL
 3479 14cc 8823      		tst r24
 3480 14ce 01F4      		brne .L186
 3481               	.LM527:
 3482 14d0 8091 0000 		lds r24,gSensH
 3483 14d4 8823      		tst r24
 3484 14d6 01F0      		breq .L189
 3485 14d8 00C0      		rjmp .L186
 3486               	.L187:
 3487               	.LM528:
 3488 14da 8091 0000 		lds r24,gSensA
 3489 14de 61E0      		ldi r22,lo8(1)
 3490 14e0 0E94 0000 		call isset
 3491 14e4 8823      		tst r24
 3492 14e6 01F0      		breq .L186
 3493               	.LM529:
 3494 14e8 8091 0000 		lds r24,gSensA
 3495 14ec 60E0      		ldi r22,lo8(0)
 3496 14ee 0E94 0000 		call isclear
 3497 14f2 8823      		tst r24
 3498 14f4 01F4      		brne .L198
 3499 14f6 00C0      		rjmp .L186
 3500               	.L191:
 3501               	.LM530:
 3502 14f8 0E94 0000 		call SensorReadDigital
 3503               	.LM531:
 3504 14fc 0E94 0000 		call DirTurnRight
 3505               	.LVL135:
 3506               	.LBB320:
 3507               	.LBB317:
 3508               	.LM532:
 3509 1500 D9BD      		out 72+1-32,r29
 3510 1502 C8BD      		out 72-32,r28
 3511               	.LM533:
 3512 1504 DBBD      		out 74+1-32,r29
 3513 1506 CABD      		out 74-32,r28
 3514               	.LVL136:
 3515               	.L198:
 3516               	.LBE317:
 3517               	.LBE320:
 3518               	.LM534:
 3519 1508 8091 0000 		lds r24,gSensL
 3520 150c 8823      		tst r24
 3521 150e 01F4      		brne .L186
 3522               	.LM535:
 3523 1510 8091 0000 		lds r24,gSensH
 3524 1514 8823      		tst r24
 3525 1516 01F0      		breq .L191
 3526               	.L186:
 3527               	.LM536:
 3528 1518 0E94 0000 		call PIDGetError
 3529 151c 8823      		tst r24
 3530 151e 01F0      		breq .L192
 3531               	.LM537:
 3532 1520 0E94 0000 		call PIDCalculateExecute
 3533 1524 00C0      		rjmp .L199
 3534               	.L192:
 3535               	.LM538:
 3536 1526 8091 0000 		lds r24,gSensH
 3537 152a 8823      		tst r24
 3538 152c 01F4      		brne .L199
 3539               	.LM539:
 3540 152e 8091 0000 		lds r24,gSensL
 3541 1532 8823      		tst r24
 3542 1534 01F4      		brne .L199
 3543               	.LM540:
 3544 1536 0E94 0000 		call DirForward
 3545               	.LM541:
 3546 153a 1BBD      		out 74+1-32,r17
 3547 153c 0ABD      		out 74-32,r16
 3548               	.LM542:
 3549 153e 19BD      		out 72+1-32,r17
 3550 1540 08BD      		out 72-32,r16
 3551               	.L199:
 3552               	.LM543:
 3553 1542 0E94 0000 		call ButtonIsNotPressed
 3554 1546 8823      		tst r24
 3555 1548 01F0      		breq .+2
 3556 154a 00C0      		rjmp .L194
 3557               	.LM544:
 3558 154c 1BBC      		out 74+1-32,__zero_reg__
 3559 154e 1ABC      		out 74-32,__zero_reg__
 3560               	.LM545:
 3561 1550 19BC      		out 72+1-32,__zero_reg__
 3562 1552 18BC      		out 72-32,__zero_reg__
 3563               	.LM546:
 3564 1554 1092 0000 		sts gState+1,__zero_reg__
 3565 1558 1092 0000 		sts gState,__zero_reg__
 3566               	/* epilogue start */
 3567               	.LM547:
 3568 155c DF91      		pop r29
 3569 155e CF91      		pop r28
 3570 1560 1F91      		pop r17
 3571 1562 0F91      		pop r16
 3572 1564 0895      		ret
 3573               	.LFE30:
 3575               	.global	RunTestCounter
 3577               	RunTestCounter:
 3578               	.LFB29:
 3579               	.LM548:
 3580 1566 0F93      		push r16
 3581 1568 1F93      		push r17
 3582 156a CF93      		push r28
 3583 156c DF93      		push r29
 3584               	/* prologue: function */
 3585               	/* frame size = 0 */
 3586               	/* stack size = 4 */
 3587               	.L__stack_usage = 4
 3588               	.LVL137:
 3589               	.LBB321:
 3590               	.LBB322:
 3591               	.LM549:
 3592 156e 8FEB      		 ldi r24,lo8(599999)
 3593 1570 97E2      	    ldi r25,hi8(599999)
 3594 1572 A9E0      	    ldi r26,hlo8(599999)
 3595 1574 8150      	    1:subi r24,1
 3596 1576 9040      	    sbci r25,0
 3597 1578 A040      	    sbci r26,0
 3598 157a 01F4      	    brne 1b
 3599 157c 00C0      		rjmp .
 3600 157e 0000      		nop
 3601 1580 00C0      		rjmp .L220
 3602               	.L204:
 3603               	.LBE322:
 3604               	.LBE321:
 3605               	.LM550:
 3606 1582 8091 0000 		lds r24,countermax
 3607 1586 9091 0000 		lds r25,countermax+1
 3608 158a 60E0      		ldi r22,lo8(0)
 3609 158c 40E0      		ldi r20,lo8(0)
 3610 158e 24E0      		ldi r18,lo8(4)
 3611 1590 0E94 0000 		call cetak_bil
 3612               	.LM551:
 3613 1594 0E94 0000 		call ButtonNext
 3614 1598 8823      		tst r24
 3615 159a 01F0      		breq .L202
 3616               	.LM552:
 3617 159c 8091 0000 		lds r24,countermax
 3618 15a0 9091 0000 		lds r25,countermax+1
 3619 15a4 A091 0000 		lds r26,countermax+2
 3620 15a8 B091 0000 		lds r27,countermax+3
 3621 15ac 0A96      		adiw r24,10
 3622 15ae A11D      		adc r26,__zero_reg__
 3623 15b0 B11D      		adc r27,__zero_reg__
 3624 15b2 8093 0000 		sts countermax,r24
 3625 15b6 9093 0000 		sts countermax+1,r25
 3626 15ba A093 0000 		sts countermax+2,r26
 3627 15be B093 0000 		sts countermax+3,r27
 3628               	.L202:
 3629               	.LM553:
 3630 15c2 0E94 0000 		call ButtonPrev
 3631 15c6 8823      		tst r24
 3632 15c8 01F0      		breq .L220
 3633               	.LM554:
 3634 15ca 8091 0000 		lds r24,countermax
 3635 15ce 9091 0000 		lds r25,countermax+1
 3636 15d2 A091 0000 		lds r26,countermax+2
 3637 15d6 B091 0000 		lds r27,countermax+3
 3638 15da 0A97      		sbiw r24,10
 3639 15dc A109      		sbc r26,__zero_reg__
 3640 15de B109      		sbc r27,__zero_reg__
 3641 15e0 8093 0000 		sts countermax,r24
 3642 15e4 9093 0000 		sts countermax+1,r25
 3643 15e8 A093 0000 		sts countermax+2,r26
 3644 15ec B093 0000 		sts countermax+3,r27
 3645               	.L220:
 3646               	.LM555:
 3647 15f0 0E94 0000 		call ButtonEnter
 3648 15f4 8823      		tst r24
 3649 15f6 01F0      		breq .L204
 3650               	.LVL138:
 3651               	.LBB323:
 3652               	.LBB324:
 3653               	.LM556:
 3654 15f8 8FEB      		 ldi r24,lo8(599999)
 3655 15fa 97E2      	    ldi r25,hi8(599999)
 3656 15fc A9E0      	    ldi r26,hlo8(599999)
 3657 15fe 8150      	    1:subi r24,1
 3658 1600 9040      	    sbci r25,0
 3659 1602 A040      	    sbci r26,0
 3660 1604 01F4      	    brne 1b
 3661 1606 00C0      		rjmp .
 3662 1608 0000      		nop
 3663               	.LBE324:
 3664               	.LBE323:
 3665               	.LM557:
 3666 160a 0E94 0000 		call SensorReadDigital
 3667               	.LBB325:
 3668               	.LBB326:
 3669               	.LM558:
 3670 160e CEE1      		ldi r28,lo8(30)
 3671 1610 D0E0      		ldi r29,hi8(30)
 3672               	.LBE326:
 3673               	.LBE325:
 3674               	.LM559:
 3675 1612 08E2      		ldi r16,lo8(40)
 3676 1614 10E0      		ldi r17,hi8(40)
 3677               	.LM560:
 3678 1616 00C0      		rjmp .L223
 3679               	.L215:
 3680               	.LM561:
 3681 1618 0196      		adiw r24,1
 3682 161a A11D      		adc r26,__zero_reg__
 3683 161c B11D      		adc r27,__zero_reg__
 3684 161e 8093 0000 		sts counter,r24
 3685 1622 9093 0000 		sts counter+1,r25
 3686 1626 A093 0000 		sts counter+2,r26
 3687 162a B093 0000 		sts counter+3,r27
 3688               	.LM562:
 3689 162e 8091 0000 		lds r24,gSensH
 3690 1632 8823      		tst r24
 3691 1634 01F0      		breq .+2
 3692 1636 00C0      		rjmp .L206
 3693               	.LM563:
 3694 1638 8091 0000 		lds r24,gSensL
 3695 163c 8823      		tst r24
 3696 163e 01F0      		breq .+2
 3697 1640 00C0      		rjmp .L206
 3698               	.LM564:
 3699 1642 8091 0000 		lds r24,gSensA
 3700 1646 60E0      		ldi r22,lo8(0)
 3701 1648 0E94 0000 		call isset
 3702 164c 8823      		tst r24
 3703 164e 01F0      		breq .L207
 3704               	.LM565:
 3705 1650 8091 0000 		lds r24,gSensA
 3706 1654 61E0      		ldi r22,lo8(1)
 3707 1656 0E94 0000 		call isclear
 3708 165a 8823      		tst r24
 3709 165c 01F4      		brne .L221
 3710 165e 00C0      		rjmp .L207
 3711               	.L209:
 3712               	.LM566:
 3713 1660 0E94 0000 		call SensorReadDigital
 3714               	.LM567:
 3715 1664 0E94 0000 		call DirTurnLeft
 3716               	.LVL139:
 3717               	.LBB328:
 3718               	.LBB329:
 3719               	.LM568:
 3720 1668 D9BD      		out 72+1-32,r29
 3721 166a C8BD      		out 72-32,r28
 3722               	.LM569:
 3723 166c DBBD      		out 74+1-32,r29
 3724 166e CABD      		out 74-32,r28
 3725               	.LVL140:
 3726               	.L221:
 3727               	.LBE329:
 3728               	.LBE328:
 3729               	.LM570:
 3730 1670 8091 0000 		lds r24,gSensL
 3731 1674 8823      		tst r24
 3732 1676 01F4      		brne .L206
 3733               	.LM571:
 3734 1678 8091 0000 		lds r24,gSensH
 3735 167c 8823      		tst r24
 3736 167e 01F0      		breq .L209
 3737 1680 00C0      		rjmp .L206
 3738               	.L207:
 3739               	.LM572:
 3740 1682 8091 0000 		lds r24,gSensA
 3741 1686 61E0      		ldi r22,lo8(1)
 3742 1688 0E94 0000 		call isset
 3743 168c 8823      		tst r24
 3744 168e 01F0      		breq .L206
 3745               	.LM573:
 3746 1690 8091 0000 		lds r24,gSensA
 3747 1694 60E0      		ldi r22,lo8(0)
 3748 1696 0E94 0000 		call isclear
 3749 169a 8823      		tst r24
 3750 169c 01F4      		brne .L222
 3751 169e 00C0      		rjmp .L206
 3752               	.L211:
 3753               	.LM574:
 3754 16a0 0E94 0000 		call SensorReadDigital
 3755               	.LM575:
 3756 16a4 0E94 0000 		call DirTurnRight
 3757               	.LVL141:
 3758               	.LBB330:
 3759               	.LBB327:
 3760               	.LM576:
 3761 16a8 D9BD      		out 72+1-32,r29
 3762 16aa C8BD      		out 72-32,r28
 3763               	.LM577:
 3764 16ac DBBD      		out 74+1-32,r29
 3765 16ae CABD      		out 74-32,r28
 3766               	.LVL142:
 3767               	.L222:
 3768               	.LBE327:
 3769               	.LBE330:
 3770               	.LM578:
 3771 16b0 8091 0000 		lds r24,gSensL
 3772 16b4 8823      		tst r24
 3773 16b6 01F4      		brne .L206
 3774               	.LM579:
 3775 16b8 8091 0000 		lds r24,gSensH
 3776 16bc 8823      		tst r24
 3777 16be 01F0      		breq .L211
 3778               	.L206:
 3779               	.LM580:
 3780 16c0 0E94 0000 		call PIDGetError
 3781 16c4 8823      		tst r24
 3782 16c6 01F0      		breq .L212
 3783               	.LM581:
 3784 16c8 0E94 0000 		call PIDCalculateExecute
 3785 16cc 00C0      		rjmp .L223
 3786               	.L212:
 3787               	.LM582:
 3788 16ce 8091 0000 		lds r24,gSensH
 3789 16d2 8823      		tst r24
 3790 16d4 01F4      		brne .L223
 3791               	.LM583:
 3792 16d6 8091 0000 		lds r24,gSensL
 3793 16da 8823      		tst r24
 3794 16dc 01F4      		brne .L223
 3795               	.LM584:
 3796 16de 0E94 0000 		call DirForward
 3797               	.LM585:
 3798 16e2 1BBD      		out 74+1-32,r17
 3799 16e4 0ABD      		out 74-32,r16
 3800               	.LM586:
 3801 16e6 19BD      		out 72+1-32,r17
 3802 16e8 08BD      		out 72-32,r16
 3803               	.L223:
 3804               	.LM587:
 3805 16ea 0E94 0000 		call ButtonIsNotPressed
 3806 16ee 8823      		tst r24
 3807 16f0 01F0      		breq .L214
 3808               	.LM588:
 3809 16f2 8091 0000 		lds r24,counter
 3810 16f6 9091 0000 		lds r25,counter+1
 3811 16fa A091 0000 		lds r26,counter+2
 3812 16fe B091 0000 		lds r27,counter+3
 3813 1702 2091 0000 		lds r18,countermax
 3814 1706 3091 0000 		lds r19,countermax+1
 3815 170a 4091 0000 		lds r20,countermax+2
 3816 170e 5091 0000 		lds r21,countermax+3
 3817 1712 8217      		cp r24,r18
 3818 1714 9307      		cpc r25,r19
 3819 1716 A407      		cpc r26,r20
 3820 1718 B507      		cpc r27,r21
 3821 171a 00F4      		brsh .+2
 3822 171c 00C0      		rjmp .L215
 3823               	.L214:
 3824               	.LM589:
 3825 171e 1BBC      		out 74+1-32,__zero_reg__
 3826 1720 1ABC      		out 74-32,__zero_reg__
 3827               	.LM590:
 3828 1722 19BC      		out 72+1-32,__zero_reg__
 3829 1724 18BC      		out 72-32,__zero_reg__
 3830               	.LM591:
 3831 1726 1092 0000 		sts gState+1,__zero_reg__
 3832 172a 1092 0000 		sts gState,__zero_reg__
 3833               	/* epilogue start */
 3834               	.LM592:
 3835 172e DF91      		pop r29
 3836 1730 CF91      		pop r28
 3837 1732 1F91      		pop r17
 3838 1734 0F91      		pop r16
 3839 1736 0895      		ret
 3840               	.LFE29:
 3842               	.global	RunC03ke04
 3844               	RunC03ke04:
 3845               	.LFB22:
 3846               	.LM593:
 3847               	/* prologue: function */
 3848               	/* frame size = 0 */
 3849               	/* stack size = 0 */
 3850               	.L__stack_usage = 0
 3851               	.LM594:
 3852 1738 00C0      		rjmp .L225
 3853               	.L228:
 3854               	.LM595:
 3855 173a 8091 0000 		lds r24,gDriveSpeed
 3856 173e 6091 0000 		lds r22,gDriveKP
 3857 1742 4091 0000 		lds r20,gDriveKD
 3858 1746 0E94 0000 		call RunOnce
 3859               	.L225:
 3860               	.LM596:
 3861 174a 8091 0000 		lds r24,gSensH
 3862 174e 8F31      		cpi r24,lo8(31)
 3863 1750 01F4      		brne .L226
 3864               	.LM597:
 3865 1752 8091 0000 		lds r24,gSensL
 3866 1756 883F      		cpi r24,lo8(-8)
 3867 1758 01F0      		breq .L227
 3868               	.L226:
 3869               	.LM598:
 3870 175a 8091 0000 		lds r24,gSensA
 3871 175e 60E0      		ldi r22,lo8(0)
 3872 1760 0E94 0000 		call isset
 3873 1764 8823      		tst r24
 3874 1766 01F0      		breq .L228
 3875               	.LM599:
 3876 1768 8091 0000 		lds r24,gSensA
 3877 176c 61E0      		ldi r22,lo8(1)
 3878 176e 0E94 0000 		call isset
 3879 1772 8823      		tst r24
 3880 1774 01F0      		breq .L228
 3881               	.L227:
 3882               	.LM600:
 3883 1776 0E94 0000 		call DirTurnLeft
 3884               	.LVL143:
 3885               	.LBB331:
 3886               	.LBB332:
 3887               	.LM601:
 3888 177a 8EE1      		ldi r24,lo8(30)
 3889 177c 90E0      		ldi r25,hi8(30)
 3890 177e 99BD      		out 72+1-32,r25
 3891 1780 88BD      		out 72-32,r24
 3892               	.LM602:
 3893 1782 9BBD      		out 74+1-32,r25
 3894 1784 8ABD      		out 74-32,r24
 3895               	.LVL144:
 3896               	.LBE332:
 3897               	.LBE331:
 3898               	.LBB333:
 3899               	.LBB334:
 3900               	.LM603:
 3901 1786 8FE7      		 ldi r24,lo8(719999)
 3902 1788 9CEF      	    ldi r25,hi8(719999)
 3903 178a AAE0      	    ldi r26,hlo8(719999)
 3904 178c 8150      	    1:subi r24,1
 3905 178e 9040      	    sbci r25,0
 3906 1790 A040      	    sbci r26,0
 3907 1792 01F4      	    brne 1b
 3908 1794 00C0      		rjmp .
 3909 1796 0000      		nop
 3910               	.LBE334:
 3911               	.LBE333:
 3912               	.LM604:
 3913 1798 1092 0000 		sts counter,__zero_reg__
 3914 179c 1092 0000 		sts counter+1,__zero_reg__
 3915 17a0 1092 0000 		sts counter+2,__zero_reg__
 3916 17a4 1092 0000 		sts counter+3,__zero_reg__
 3917               	.LM605:
 3918 17a8 0E94 0000 		call SetMinim
 3919               	.LM606:
 3920 17ac 00C0      		rjmp .L229
 3921               	.L230:
 3922               	.LM607:
 3923 17ae 8CE3      		ldi r24,lo8(60)
 3924 17b0 66E0      		ldi r22,lo8(6)
 3925 17b2 4091 0000 		lds r20,gDriveKD
 3926 17b6 0E94 0000 		call RunOnce
 3927               	.L229:
 3928               	.LM608:
 3929 17ba 8091 0000 		lds r24,counter
 3930 17be 9091 0000 		lds r25,counter+1
 3931 17c2 A091 0000 		lds r26,counter+2
 3932 17c6 B091 0000 		lds r27,counter+3
 3933 17ca 8D3B      		cpi r24,lo8(701)
 3934 17cc 22E0      		ldi r18,hi8(701)
 3935 17ce 9207      		cpc r25,r18
 3936 17d0 20E0      		ldi r18,hlo8(701)
 3937 17d2 A207      		cpc r26,r18
 3938 17d4 20E0      		ldi r18,hhi8(701)
 3939 17d6 B207      		cpc r27,r18
 3940 17d8 00F0      		brlo .L230
 3941 17da 00C0      		rjmp .L237
 3942               	.L232:
 3943               	.LM609:
 3944 17dc 84E1      		ldi r24,lo8(20)
 3945 17de 63E0      		ldi r22,lo8(3)
 3946 17e0 4091 0000 		lds r20,gDriveKD
 3947 17e4 0E94 0000 		call RunOnce
 3948               	.L237:
 3949               	.LM610:
 3950 17e8 8091 0000 		lds r24,gSensA
 3951 17ec 60E0      		ldi r22,lo8(0)
 3952 17ee 0E94 0000 		call isset
 3953 17f2 8823      		tst r24
 3954 17f4 01F0      		breq .L232
 3955               	.LM611:
 3956 17f6 8091 0000 		lds r24,gSensA
 3957 17fa 61E0      		ldi r22,lo8(1)
 3958 17fc 0E94 0000 		call isset
 3959 1800 8823      		tst r24
 3960 1802 01F0      		breq .L232
 3961               	.LM612:
 3962 1804 0E94 0000 		call DirTurnLeft
 3963               	.LVL145:
 3964               	.LBB335:
 3965               	.LBB336:
 3966               	.LM613:
 3967 1808 8EE1      		ldi r24,lo8(30)
 3968 180a 90E0      		ldi r25,hi8(30)
 3969 180c 99BD      		out 72+1-32,r25
 3970 180e 88BD      		out 72-32,r24
 3971               	.LM614:
 3972 1810 9BBD      		out 74+1-32,r25
 3973 1812 8ABD      		out 74-32,r24
 3974               	.LVL146:
 3975               	.LBE336:
 3976               	.LBE335:
 3977               	.LBB337:
 3978               	.LBB338:
 3979               	.LM615:
 3980 1814 8FE7      		 ldi r24,lo8(719999)
 3981 1816 9CEF      	    ldi r25,hi8(719999)
 3982 1818 AAE0      	    ldi r26,hlo8(719999)
 3983 181a 8150      	    1:subi r24,1
 3984 181c 9040      	    sbci r25,0
 3985 181e A040      	    sbci r26,0
 3986 1820 01F4      	    brne 1b
 3987 1822 00C0      		rjmp .
 3988 1824 0000      		nop
 3989               	.LBE338:
 3990               	.LBE337:
 3991               	.LM616:
 3992 1826 0E94 0000 		call DirForward
 3993               	.LM617:
 3994 182a 1092 0000 		sts counter,__zero_reg__
 3995 182e 1092 0000 		sts counter+1,__zero_reg__
 3996 1832 1092 0000 		sts counter+2,__zero_reg__
 3997 1836 1092 0000 		sts counter+3,__zero_reg__
 3998               	.LM618:
 3999 183a 00C0      		rjmp .L233
 4000               	.L234:
 4001               	.LM619:
 4002 183c 82E3      		ldi r24,lo8(50)
 4003 183e 65E0      		ldi r22,lo8(5)
 4004 1840 4091 0000 		lds r20,gDriveKD
 4005 1844 0E94 0000 		call RunOnce
 4006               	.L233:
 4007               	.LM620:
 4008 1848 8091 0000 		lds r24,gSensA
 4009 184c 61E0      		ldi r22,lo8(1)
 4010 184e 0E94 0000 		call isclear
 4011 1852 8823      		tst r24
 4012 1854 01F4      		brne .L234
 4013               	.LM621:
 4014 1856 0E94 0000 		call DirTurnRight
 4015               	.LVL147:
 4016               	.LBB339:
 4017               	.LBB340:
 4018               	.LM622:
 4019 185a 8EE1      		ldi r24,lo8(30)
 4020 185c 90E0      		ldi r25,hi8(30)
 4021 185e 99BD      		out 72+1-32,r25
 4022 1860 88BD      		out 72-32,r24
 4023               	.LM623:
 4024 1862 9BBD      		out 74+1-32,r25
 4025 1864 8ABD      		out 74-32,r24
 4026               	.LVL148:
 4027               	.LBE340:
 4028               	.LBE339:
 4029               	.LBB341:
 4030               	.LBB342:
 4031               	.LM624:
 4032 1866 8FE7      		 ldi r24,lo8(719999)
 4033 1868 9CEF      	    ldi r25,hi8(719999)
 4034 186a AAE0      	    ldi r26,hlo8(719999)
 4035 186c 8150      	    1:subi r24,1
 4036 186e 9040      	    sbci r25,0
 4037 1870 A040      	    sbci r26,0
 4038 1872 01F4      	    brne 1b
 4039 1874 00C0      		rjmp .
 4040 1876 0000      		nop
 4041               	.LBE342:
 4042               	.LBE341:
 4043               	.LM625:
 4044 1878 0E94 0000 		call DirForward
 4045               	.LM626:
 4046 187c 1092 0000 		sts counter,__zero_reg__
 4047 1880 1092 0000 		sts counter+1,__zero_reg__
 4048 1884 1092 0000 		sts counter+2,__zero_reg__
 4049 1888 1092 0000 		sts counter+3,__zero_reg__
 4050               	.LM627:
 4051 188c 0E94 0000 		call SetDefault
 4052               	.LM628:
 4053 1890 00C0      		rjmp .L235
 4054               	.L236:
 4055               	.LM629:
 4056 1892 8EE1      		ldi r24,lo8(30)
 4057 1894 63E0      		ldi r22,lo8(3)
 4058 1896 4091 0000 		lds r20,gDriveKD
 4059 189a 0E94 0000 		call RunOnce
 4060               	.L235:
 4061               	.LM630:
 4062 189e 8091 0000 		lds r24,gSensA
 4063 18a2 61E0      		ldi r22,lo8(1)
 4064 18a4 0E94 0000 		call isclear
 4065 18a8 8823      		tst r24
 4066 18aa 01F4      		brne .L236
 4067               	/* epilogue start */
 4068               	.LM631:
 4069 18ac 0895      		ret
 4070               	.LFE22:
 4072               	.global	RunC00ke01
 4074               	RunC00ke01:
 4075               	.LFB19:
 4076               	.LM632:
 4077 18ae CF93      		push r28
 4078 18b0 DF93      		push r29
 4079               	/* prologue: function */
 4080               	/* frame size = 0 */
 4081               	/* stack size = 2 */
 4082               	.L__stack_usage = 2
 4083               	.LM633:
 4084 18b2 0E94 0000 		call DirForward
 4085               	.LVL149:
 4086               	.LBB343:
 4087               	.LBB344:
 4088               	.LM634:
 4089 18b6 8EE1      		ldi r24,lo8(30)
 4090 18b8 90E0      		ldi r25,hi8(30)
 4091 18ba 99BD      		out 72+1-32,r25
 4092 18bc 88BD      		out 72-32,r24
 4093               	.LM635:
 4094 18be 9BBD      		out 74+1-32,r25
 4095 18c0 8ABD      		out 74-32,r24
 4096               	.LVL150:
 4097               	.LBE344:
 4098               	.LBE343:
 4099               	.LBB345:
 4100               	.LBB346:
 4101               	.LM636:
 4102 18c2 8FE7      		 ldi r24,lo8(719999)
 4103 18c4 9CEF      	    ldi r25,hi8(719999)
 4104 18c6 AAE0      	    ldi r26,hlo8(719999)
 4105 18c8 8150      	    1:subi r24,1
 4106 18ca 9040      	    sbci r25,0
 4107 18cc A040      	    sbci r26,0
 4108 18ce 01F4      	    brne 1b
 4109 18d0 00C0      		rjmp .
 4110 18d2 0000      		nop
 4111               	.LBE346:
 4112               	.LBE345:
 4113               	.LM637:
 4114 18d4 1092 0000 		sts counter,__zero_reg__
 4115 18d8 1092 0000 		sts counter+1,__zero_reg__
 4116 18dc 1092 0000 		sts counter+2,__zero_reg__
 4117 18e0 1092 0000 		sts counter+3,__zero_reg__
 4118               	.LM638:
 4119 18e4 0E94 0000 		call SensorReadDigital
 4120               	.LM639:
 4121 18e8 00C0      		rjmp .L239
 4122               	.L240:
 4123               	.LM640:
 4124 18ea 8091 0000 		lds r24,gDriveSpeed
 4125 18ee 6091 0000 		lds r22,gDriveKP
 4126 18f2 4091 0000 		lds r20,gDriveKD
 4127 18f6 0E94 0000 		call RunOnce
 4128               	.L239:
 4129               	.LM641:
 4130 18fa 8091 0000 		lds r24,counter
 4131 18fe 9091 0000 		lds r25,counter+1
 4132 1902 A091 0000 		lds r26,counter+2
 4133 1906 B091 0000 		lds r27,counter+3
 4134 190a 8333      		cpi r24,lo8(51)
 4135 190c 9105      		cpc r25,__zero_reg__
 4136 190e A105      		cpc r26,__zero_reg__
 4137 1910 B105      		cpc r27,__zero_reg__
 4138 1912 00F0      		brlo .L240
 4139               	.LM642:
 4140 1914 0E94 0000 		call DirTurnRight
 4141               	.LVL151:
 4142               	.LBB347:
 4143               	.LBB348:
 4144               	.LM643:
 4145 1918 8EE1      		ldi r24,lo8(30)
 4146 191a 90E0      		ldi r25,hi8(30)
 4147 191c 99BD      		out 72+1-32,r25
 4148 191e 88BD      		out 72-32,r24
 4149               	.LM644:
 4150 1920 9BBD      		out 74+1-32,r25
 4151 1922 8ABD      		out 74-32,r24
 4152               	.LVL152:
 4153               	.LBE348:
 4154               	.LBE347:
 4155               	.LBB349:
 4156               	.LBB350:
 4157               	.LM645:
 4158 1924 8FEB      		 ldi r24,lo8(599999)
 4159 1926 97E2      	    ldi r25,hi8(599999)
 4160 1928 A9E0      	    ldi r26,hlo8(599999)
 4161 192a 8150      	    1:subi r24,1
 4162 192c 9040      	    sbci r25,0
 4163 192e A040      	    sbci r26,0
 4164 1930 01F4      	    brne 1b
 4165 1932 00C0      		rjmp .
 4166 1934 0000      		nop
 4167               	.LBE350:
 4168               	.LBE349:
 4169               	.LM646:
 4170 1936 1092 0000 		sts counter,__zero_reg__
 4171 193a 1092 0000 		sts counter+1,__zero_reg__
 4172 193e 1092 0000 		sts counter+2,__zero_reg__
 4173 1942 1092 0000 		sts counter+3,__zero_reg__
 4174               	.LM647:
 4175 1946 0E94 0000 		call SensorReadDigital
 4176               	.LM648:
 4177 194a 00C0      		rjmp .L241
 4178               	.L242:
 4179               	.LM649:
 4180 194c 8091 0000 		lds r24,gDriveSpeed
 4181 1950 6091 0000 		lds r22,gDriveKP
 4182 1954 4091 0000 		lds r20,gDriveKD
 4183 1958 0E94 0000 		call RunOnce
 4184               	.L241:
 4185               	.LM650:
 4186 195c 8091 0000 		lds r24,counter
 4187 1960 9091 0000 		lds r25,counter+1
 4188 1964 A091 0000 		lds r26,counter+2
 4189 1968 B091 0000 		lds r27,counter+3
 4190 196c 8333      		cpi r24,lo8(51)
 4191 196e 9105      		cpc r25,__zero_reg__
 4192 1970 A105      		cpc r26,__zero_reg__
 4193 1972 B105      		cpc r27,__zero_reg__
 4194 1974 00F0      		brlo .L242
 4195               	.LM651:
 4196 1976 0E94 0000 		call DirForward
 4197               	.LVL153:
 4198               	.LBB351:
 4199               	.LBB352:
 4200               	.LM652:
 4201 197a 8EE1      		ldi r24,lo8(30)
 4202 197c 90E0      		ldi r25,hi8(30)
 4203 197e 99BD      		out 72+1-32,r25
 4204 1980 88BD      		out 72-32,r24
 4205               	.LM653:
 4206 1982 9BBD      		out 74+1-32,r25
 4207 1984 8ABD      		out 74-32,r24
 4208               	.LVL154:
 4209               	.LBE352:
 4210               	.LBE351:
 4211               	.LBB353:
 4212               	.LBB354:
 4213               	.LM654:
 4214 1986 8FEB      		 ldi r24,lo8(599999)
 4215 1988 97E2      	    ldi r25,hi8(599999)
 4216 198a A9E0      	    ldi r26,hlo8(599999)
 4217 198c 8150      	    1:subi r24,1
 4218 198e 9040      	    sbci r25,0
 4219 1990 A040      	    sbci r26,0
 4220 1992 01F4      	    brne 1b
 4221 1994 00C0      		rjmp .
 4222 1996 0000      		nop
 4223               	.LBE354:
 4224               	.LBE353:
 4225               	.LM655:
 4226 1998 1092 0000 		sts counter,__zero_reg__
 4227 199c 1092 0000 		sts counter+1,__zero_reg__
 4228 19a0 1092 0000 		sts counter+2,__zero_reg__
 4229 19a4 1092 0000 		sts counter+3,__zero_reg__
 4230               	.LM656:
 4231 19a8 00C0      		rjmp .L243
 4232               	.L244:
 4233               	.LM657:
 4234 19aa 8091 0000 		lds r24,gDriveSpeed
 4235 19ae 6091 0000 		lds r22,gDriveKP
 4236 19b2 4091 0000 		lds r20,gDriveKD
 4237 19b6 0E94 0000 		call RunOnce
 4238               	.L243:
 4239               	.LM658:
 4240 19ba 8091 0000 		lds r24,counter
 4241 19be 9091 0000 		lds r25,counter+1
 4242 19c2 A091 0000 		lds r26,counter+2
 4243 19c6 B091 0000 		lds r27,counter+3
 4244 19ca 8333      		cpi r24,lo8(51)
 4245 19cc 9105      		cpc r25,__zero_reg__
 4246 19ce A105      		cpc r26,__zero_reg__
 4247 19d0 B105      		cpc r27,__zero_reg__
 4248 19d2 00F0      		brlo .L244
 4249               	.LM659:
 4250 19d4 0E94 0000 		call DirTurnRight
 4251               	.LVL155:
 4252               	.LBB355:
 4253               	.LBB356:
 4254               	.LM660:
 4255 19d8 8EE1      		ldi r24,lo8(30)
 4256 19da 90E0      		ldi r25,hi8(30)
 4257 19dc 99BD      		out 72+1-32,r25
 4258 19de 88BD      		out 72-32,r24
 4259               	.LM661:
 4260 19e0 9BBD      		out 74+1-32,r25
 4261 19e2 8ABD      		out 74-32,r24
 4262               	.LVL156:
 4263               	.LBE356:
 4264               	.LBE355:
 4265               	.LBB357:
 4266               	.LBB358:
 4267               	.LM662:
 4268 19e4 8FEB      		 ldi r24,lo8(599999)
 4269 19e6 97E2      	    ldi r25,hi8(599999)
 4270 19e8 A9E0      	    ldi r26,hlo8(599999)
 4271 19ea 8150      	    1:subi r24,1
 4272 19ec 9040      	    sbci r25,0
 4273 19ee A040      	    sbci r26,0
 4274 19f0 01F4      	    brne 1b
 4275 19f2 00C0      		rjmp .
 4276 19f4 0000      		nop
 4277               	.LBE358:
 4278               	.LBE357:
 4279               	.LM663:
 4280 19f6 1092 0000 		sts counter,__zero_reg__
 4281 19fa 1092 0000 		sts counter+1,__zero_reg__
 4282 19fe 1092 0000 		sts counter+2,__zero_reg__
 4283 1a02 1092 0000 		sts counter+3,__zero_reg__
 4284               	.LM664:
 4285 1a06 00C0      		rjmp .L245
 4286               	.L247:
 4287               	.LM665:
 4288 1a08 8091 0000 		lds r24,gDriveSpeed
 4289 1a0c 6091 0000 		lds r22,gDriveKP
 4290 1a10 4091 0000 		lds r20,gDriveKD
 4291 1a14 0E94 0000 		call RunOnce
 4292               	.L245:
 4293               	.LM666:
 4294 1a18 8091 0000 		lds r24,counter
 4295 1a1c 9091 0000 		lds r25,counter+1
 4296 1a20 A091 0000 		lds r26,counter+2
 4297 1a24 B091 0000 		lds r27,counter+3
 4298 1a28 8139      		cpi r24,lo8(401)
 4299 1a2a 21E0      		ldi r18,hi8(401)
 4300 1a2c 9207      		cpc r25,r18
 4301 1a2e 20E0      		ldi r18,hlo8(401)
 4302 1a30 A207      		cpc r26,r18
 4303 1a32 20E0      		ldi r18,hhi8(401)
 4304 1a34 B207      		cpc r27,r18
 4305 1a36 00F4      		brsh .L246
 4306               	.LM667:
 4307 1a38 8091 0000 		lds r24,gSensA
 4308 1a3c 60E0      		ldi r22,lo8(0)
 4309 1a3e 0E94 0000 		call isclear
 4310 1a42 8823      		tst r24
 4311 1a44 01F4      		brne .L247
 4312               	.L246:
 4313               	.LM668:
 4314 1a46 0E94 0000 		call DirTurnLeft
 4315               	.LVL157:
 4316               	.LBB359:
 4317               	.LBB360:
 4318               	.LM669:
 4319 1a4a CEE1      		ldi r28,lo8(30)
 4320 1a4c D0E0      		ldi r29,hi8(30)
 4321 1a4e D9BD      		out 72+1-32,r29
 4322 1a50 C8BD      		out 72-32,r28
 4323               	.LM670:
 4324 1a52 DBBD      		out 74+1-32,r29
 4325 1a54 CABD      		out 74-32,r28
 4326               	.LVL158:
 4327               	.LBE360:
 4328               	.LBE359:
 4329               	.LBB361:
 4330               	.LBB362:
 4331               	.LM671:
 4332 1a56 8FEB      		 ldi r24,lo8(599999)
 4333 1a58 97E2      	    ldi r25,hi8(599999)
 4334 1a5a A9E0      	    ldi r26,hlo8(599999)
 4335 1a5c 8150      	    1:subi r24,1
 4336 1a5e 9040      	    sbci r25,0
 4337 1a60 A040      	    sbci r26,0
 4338 1a62 01F4      	    brne 1b
 4339 1a64 00C0      		rjmp .
 4340 1a66 0000      		nop
 4341               	.LBE362:
 4342               	.LBE361:
 4343               	.LM672:
 4344 1a68 0E94 0000 		call DirForward
 4345               	.LVL159:
 4346               	.LBB363:
 4347               	.LBB364:
 4348               	.LM673:
 4349 1a6c D9BD      		out 72+1-32,r29
 4350 1a6e C8BD      		out 72-32,r28
 4351               	.LM674:
 4352 1a70 DBBD      		out 74+1-32,r29
 4353 1a72 CABD      		out 74-32,r28
 4354               	.LVL160:
 4355               	.LBE364:
 4356               	.LBE363:
 4357               	.LBB365:
 4358               	.LBB366:
 4359               	.LM675:
 4360 1a74 8FE7      		 ldi r24,lo8(239999)
 4361 1a76 99EA      	    ldi r25,hi8(239999)
 4362 1a78 A3E0      	    ldi r26,hlo8(239999)
 4363 1a7a 8150      	    1:subi r24,1
 4364 1a7c 9040      	    sbci r25,0
 4365 1a7e A040      	    sbci r26,0
 4366 1a80 01F4      	    brne 1b
 4367 1a82 00C0      		rjmp .
 4368 1a84 0000      		nop
 4369               	.LBE366:
 4370               	.LBE365:
 4371               	.LM676:
 4372 1a86 0E94 0000 		call DirTurnLeft
 4373               	.LVL161:
 4374               	.LBB367:
 4375               	.LBB368:
 4376               	.LM677:
 4377 1a8a D9BD      		out 72+1-32,r29
 4378 1a8c C8BD      		out 72-32,r28
 4379               	.LM678:
 4380 1a8e DBBD      		out 74+1-32,r29
 4381 1a90 CABD      		out 74-32,r28
 4382               	.LVL162:
 4383               	.LBE368:
 4384               	.LBE367:
 4385               	.LBB369:
 4386               	.LBB370:
 4387               	.LM679:
 4388 1a92 8FEB      		 ldi r24,lo8(599999)
 4389 1a94 97E2      	    ldi r25,hi8(599999)
 4390 1a96 A9E0      	    ldi r26,hlo8(599999)
 4391 1a98 8150      	    1:subi r24,1
 4392 1a9a 9040      	    sbci r25,0
 4393 1a9c A040      	    sbci r26,0
 4394 1a9e 01F4      	    brne 1b
 4395 1aa0 00C0      		rjmp .
 4396 1aa2 0000      		nop
 4397               	.LVL163:
 4398               	.LBE370:
 4399               	.LBE369:
 4400               	.LBB371:
 4401               	.LBB372:
 4402               	.LM680:
 4403 1aa4 19BC      		out 72+1-32,__zero_reg__
 4404 1aa6 18BC      		out 72-32,__zero_reg__
 4405               	.LM681:
 4406 1aa8 1BBC      		out 74+1-32,__zero_reg__
 4407 1aaa 1ABC      		out 74-32,__zero_reg__
 4408               	.L248:
 4409               	.LBE372:
 4410               	.LBE371:
 4411               	.LM682:
 4412 1aac 0E94 0000 		call ButtonIsNotPressed
 4413 1ab0 8823      		tst r24
 4414 1ab2 01F4      		brne .L248
 4415               	/* epilogue start */
 4416               	.LM683:
 4417 1ab4 DF91      		pop r29
 4418 1ab6 CF91      		pop r28
 4419 1ab8 0895      		ret
 4420               	.LFE19:
 4422               	.global	RunEb01ke02
 4424               	RunEb01ke02:
 4425               	.LFB28:
 4426               	.LM684:
 4427 1aba CF93      		push r28
 4428 1abc DF93      		push r29
 4429               	/* prologue: function */
 4430               	/* frame size = 0 */
 4431               	/* stack size = 2 */
 4432               	.L__stack_usage = 2
 4433               	.LM685:
 4434 1abe 0E94 0000 		call DirTurnRight
 4435               	.LVL164:
 4436               	.LBB373:
 4437               	.LBB374:
 4438               	.LM686:
 4439 1ac2 CEE1      		ldi r28,lo8(30)
 4440 1ac4 D0E0      		ldi r29,hi8(30)
 4441 1ac6 D9BD      		out 72+1-32,r29
 4442 1ac8 C8BD      		out 72-32,r28
 4443               	.LM687:
 4444 1aca DBBD      		out 74+1-32,r29
 4445 1acc CABD      		out 74-32,r28
 4446               	.LVL165:
 4447               	.LBE374:
 4448               	.LBE373:
 4449               	.LBB375:
 4450               	.LBB376:
 4451               	.LM688:
 4452 1ace 8FEB      		 ldi r24,lo8(599999)
 4453 1ad0 97E2      	    ldi r25,hi8(599999)
 4454 1ad2 A9E0      	    ldi r26,hlo8(599999)
 4455 1ad4 8150      	    1:subi r24,1
 4456 1ad6 9040      	    sbci r25,0
 4457 1ad8 A040      	    sbci r26,0
 4458 1ada 01F4      	    brne 1b
 4459 1adc 00C0      		rjmp .
 4460 1ade 0000      		nop
 4461               	.LBE376:
 4462               	.LBE375:
 4463               	.LM689:
 4464 1ae0 8AE0      		ldi r24,lo8(10)
 4465 1ae2 0E94 0000 		call RunWhileNormal
 4466               	.LM690:
 4467 1ae6 0E94 0000 		call DirTurnLeft
 4468               	.LVL166:
 4469               	.LBB377:
 4470               	.LBB378:
 4471               	.LM691:
 4472 1aea D9BD      		out 72+1-32,r29
 4473 1aec C8BD      		out 72-32,r28
 4474               	.LM692:
 4475 1aee DBBD      		out 74+1-32,r29
 4476 1af0 CABD      		out 74-32,r28
 4477               	.LVL167:
 4478               	.LBE378:
 4479               	.LBE377:
 4480               	.LBB379:
 4481               	.LBB380:
 4482               	.LM693:
 4483 1af2 8FEB      		 ldi r24,lo8(599999)
 4484 1af4 97E2      	    ldi r25,hi8(599999)
 4485 1af6 A9E0      	    ldi r26,hlo8(599999)
 4486 1af8 8150      	    1:subi r24,1
 4487 1afa 9040      	    sbci r25,0
 4488 1afc A040      	    sbci r26,0
 4489 1afe 01F4      	    brne 1b
 4490 1b00 00C0      		rjmp .
 4491 1b02 0000      		nop
 4492               	.LBE380:
 4493               	.LBE379:
 4494               	.LM694:
 4495 1b04 8AE0      		ldi r24,lo8(10)
 4496 1b06 0E94 0000 		call RunWhileNormal
 4497               	.LM695:
 4498 1b0a 0E94 0000 		call DirForward
 4499               	.LVL168:
 4500               	.LBB381:
 4501               	.LBB382:
 4502               	.LM696:
 4503 1b0e D9BD      		out 72+1-32,r29
 4504 1b10 C8BD      		out 72-32,r28
 4505               	.LM697:
 4506 1b12 DBBD      		out 74+1-32,r29
 4507 1b14 CABD      		out 74-32,r28
 4508               	.LVL169:
 4509               	.LBE382:
 4510               	.LBE381:
 4511               	.LBB383:
 4512               	.LBB384:
 4513               	.LM698:
 4514 1b16 8FEF      		 ldi r24,lo8(479999)
 4515 1b18 92E5      	    ldi r25,hi8(479999)
 4516 1b1a A7E0      	    ldi r26,hlo8(479999)
 4517 1b1c 8150      	    1:subi r24,1
 4518 1b1e 9040      	    sbci r25,0
 4519 1b20 A040      	    sbci r26,0
 4520 1b22 01F4      	    brne 1b
 4521 1b24 00C0      		rjmp .
 4522 1b26 0000      		nop
 4523               	.LBE384:
 4524               	.LBE383:
 4525               	.LM699:
 4526 1b28 85E0      		ldi r24,lo8(5)
 4527 1b2a 0E94 0000 		call RunWhileNormal
 4528               	.LM700:
 4529 1b2e 0E94 0000 		call DirTurnLeft
 4530               	.LVL170:
 4531               	.LBB385:
 4532               	.LBB386:
 4533               	.LM701:
 4534 1b32 D9BD      		out 72+1-32,r29
 4535 1b34 C8BD      		out 72-32,r28
 4536               	.LM702:
 4537 1b36 DBBD      		out 74+1-32,r29
 4538 1b38 CABD      		out 74-32,r28
 4539               	.LVL171:
 4540               	.LBE386:
 4541               	.LBE385:
 4542               	.LBB387:
 4543               	.LBB388:
 4544               	.LM703:
 4545 1b3a 8FEB      		 ldi r24,lo8(599999)
 4546 1b3c 97E2      	    ldi r25,hi8(599999)
 4547 1b3e A9E0      	    ldi r26,hlo8(599999)
 4548 1b40 8150      	    1:subi r24,1
 4549 1b42 9040      	    sbci r25,0
 4550 1b44 A040      	    sbci r26,0
 4551 1b46 01F4      	    brne 1b
 4552 1b48 00C0      		rjmp .
 4553 1b4a 0000      		nop
 4554               	.LBE388:
 4555               	.LBE387:
 4556               	.LM704:
 4557 1b4c 8AE0      		ldi r24,lo8(10)
 4558 1b4e 0E94 0000 		call RunWhileNormal
 4559               	.LM705:
 4560 1b52 0E94 0000 		call DirTurnLeft
 4561               	.LVL172:
 4562               	.LBB389:
 4563               	.LBB390:
 4564               	.LM706:
 4565 1b56 D9BD      		out 72+1-32,r29
 4566 1b58 C8BD      		out 72-32,r28
 4567               	.LM707:
 4568 1b5a DBBD      		out 74+1-32,r29
 4569 1b5c CABD      		out 74-32,r28
 4570               	.LVL173:
 4571               	.LBE390:
 4572               	.LBE389:
 4573               	.LBB391:
 4574               	.LBB392:
 4575               	.LM708:
 4576 1b5e 8FEB      		 ldi r24,lo8(599999)
 4577 1b60 97E2      	    ldi r25,hi8(599999)
 4578 1b62 A9E0      	    ldi r26,hlo8(599999)
 4579 1b64 8150      	    1:subi r24,1
 4580 1b66 9040      	    sbci r25,0
 4581 1b68 A040      	    sbci r26,0
 4582 1b6a 01F4      	    brne 1b
 4583 1b6c 00C0      		rjmp .
 4584 1b6e 0000      		nop
 4585               	.LBE392:
 4586               	.LBE391:
 4587               	.LM709:
 4588 1b70 8AE0      		ldi r24,lo8(10)
 4589 1b72 0E94 0000 		call RunWhileNormal
 4590               	.LM710:
 4591 1b76 0E94 0000 		call DirForward
 4592               	.LVL174:
 4593               	.LBB393:
 4594               	.LBB394:
 4595               	.LM711:
 4596 1b7a D9BD      		out 72+1-32,r29
 4597 1b7c C8BD      		out 72-32,r28
 4598               	.LM712:
 4599 1b7e DBBD      		out 74+1-32,r29
 4600 1b80 CABD      		out 74-32,r28
 4601               	.LVL175:
 4602               	.LBE394:
 4603               	.LBE393:
 4604               	.LBB395:
 4605               	.LBB396:
 4606               	.LM713:
 4607 1b82 8FEF      		 ldi r24,lo8(479999)
 4608 1b84 92E5      	    ldi r25,hi8(479999)
 4609 1b86 A7E0      	    ldi r26,hlo8(479999)
 4610 1b88 8150      	    1:subi r24,1
 4611 1b8a 9040      	    sbci r25,0
 4612 1b8c A040      	    sbci r26,0
 4613 1b8e 01F4      	    brne 1b
 4614 1b90 00C0      		rjmp .
 4615 1b92 0000      		nop
 4616               	.LBE396:
 4617               	.LBE395:
 4618               	.LM714:
 4619 1b94 85E0      		ldi r24,lo8(5)
 4620 1b96 0E94 0000 		call RunWhileNormal
 4621               	.LM715:
 4622 1b9a 0E94 0000 		call DirTurnLeft
 4623               	.LVL176:
 4624               	.LBB397:
 4625               	.LBB398:
 4626               	.LM716:
 4627 1b9e D9BD      		out 72+1-32,r29
 4628 1ba0 C8BD      		out 72-32,r28
 4629               	.LM717:
 4630 1ba2 DBBD      		out 74+1-32,r29
 4631 1ba4 CABD      		out 74-32,r28
 4632               	.LVL177:
 4633               	.LBE398:
 4634               	.LBE397:
 4635               	.LBB399:
 4636               	.LBB400:
 4637               	.LM718:
 4638 1ba6 8FEB      		 ldi r24,lo8(599999)
 4639 1ba8 97E2      	    ldi r25,hi8(599999)
 4640 1baa A9E0      	    ldi r26,hlo8(599999)
 4641 1bac 8150      	    1:subi r24,1
 4642 1bae 9040      	    sbci r25,0
 4643 1bb0 A040      	    sbci r26,0
 4644 1bb2 01F4      	    brne 1b
 4645 1bb4 00C0      		rjmp .
 4646 1bb6 0000      		nop
 4647               	.LBE400:
 4648               	.LBE399:
 4649               	.LM719:
 4650 1bb8 8FE0      		ldi r24,lo8(15)
 4651 1bba 0E94 0000 		call RunWhileNormal
 4652               	.LVL178:
 4653               	.LBB401:
 4654               	.LBB402:
 4655               	.LM720:
 4656 1bbe 19BC      		out 72+1-32,__zero_reg__
 4657 1bc0 18BC      		out 72-32,__zero_reg__
 4658               	.LM721:
 4659 1bc2 1BBC      		out 74+1-32,__zero_reg__
 4660 1bc4 1ABC      		out 74-32,__zero_reg__
 4661               	.L251:
 4662               	.LBE402:
 4663               	.LBE401:
 4664               	.LM722:
 4665 1bc6 0E94 0000 		call ButtonIsNotPressed
 4666 1bca 8823      		tst r24
 4667 1bcc 01F4      		brne .L251
 4668               	.L253:
 4669               	.LM723:
 4670 1bce 0E94 0000 		call ButtonIsNotPressed
 4671 1bd2 8823      		tst r24
 4672 1bd4 01F4      		brne .L253
 4673               	/* epilogue start */
 4674               	.LM724:
 4675 1bd6 DF91      		pop r29
 4676 1bd8 CF91      		pop r28
 4677 1bda 0895      		ret
 4678               	.LFE28:
 4680               	.global	RunEb00ke01
 4682               	RunEb00ke01:
 4683               	.LFB27:
 4684               	.LM725:
 4685 1bdc CF93      		push r28
 4686 1bde DF93      		push r29
 4687               	/* prologue: function */
 4688               	/* frame size = 0 */
 4689               	/* stack size = 2 */
 4690               	.L__stack_usage = 2
 4691               	.LM726:
 4692 1be0 0E94 0000 		call DirForward
 4693               	.LVL179:
 4694               	.LBB403:
 4695               	.LBB404:
 4696               	.LM727:
 4697 1be4 CEE1      		ldi r28,lo8(30)
 4698 1be6 D0E0      		ldi r29,hi8(30)
 4699 1be8 D9BD      		out 72+1-32,r29
 4700 1bea C8BD      		out 72-32,r28
 4701               	.LM728:
 4702 1bec DBBD      		out 74+1-32,r29
 4703 1bee CABD      		out 74-32,r28
 4704               	.LVL180:
 4705               	.LBE404:
 4706               	.LBE403:
 4707               	.LBB405:
 4708               	.LBB406:
 4709               	.LM729:
 4710 1bf0 8FE7      		 ldi r24,lo8(719999)
 4711 1bf2 9CEF      	    ldi r25,hi8(719999)
 4712 1bf4 AAE0      	    ldi r26,hlo8(719999)
 4713 1bf6 8150      	    1:subi r24,1
 4714 1bf8 9040      	    sbci r25,0
 4715 1bfa A040      	    sbci r26,0
 4716 1bfc 01F4      	    brne 1b
 4717 1bfe 00C0      		rjmp .
 4718 1c00 0000      		nop
 4719               	.LBE406:
 4720               	.LBE405:
 4721               	.LM730:
 4722 1c02 85E0      		ldi r24,lo8(5)
 4723 1c04 0E94 0000 		call RunWhileNormal
 4724               	.LM731:
 4725 1c08 0E94 0000 		call DirTurnRight
 4726               	.LVL181:
 4727               	.LBB407:
 4728               	.LBB408:
 4729               	.LM732:
 4730 1c0c D9BD      		out 72+1-32,r29
 4731 1c0e C8BD      		out 72-32,r28
 4732               	.LM733:
 4733 1c10 DBBD      		out 74+1-32,r29
 4734 1c12 CABD      		out 74-32,r28
 4735               	.LVL182:
 4736               	.LBE408:
 4737               	.LBE407:
 4738               	.LBB409:
 4739               	.LBB410:
 4740               	.LM734:
 4741 1c14 8FEF      		 ldi r24,lo8(479999)
 4742 1c16 92E5      	    ldi r25,hi8(479999)
 4743 1c18 A7E0      	    ldi r26,hlo8(479999)
 4744 1c1a 8150      	    1:subi r24,1
 4745 1c1c 9040      	    sbci r25,0
 4746 1c1e A040      	    sbci r26,0
 4747 1c20 01F4      	    brne 1b
 4748 1c22 00C0      		rjmp .
 4749 1c24 0000      		nop
 4750               	.LBE410:
 4751               	.LBE409:
 4752               	.LM735:
 4753 1c26 85E0      		ldi r24,lo8(5)
 4754 1c28 0E94 0000 		call RunWhileNormal
 4755               	.LM736:
 4756 1c2c 0E94 0000 		call DirForward
 4757               	.LVL183:
 4758               	.LBB411:
 4759               	.LBB412:
 4760               	.LM737:
 4761 1c30 88E2      		ldi r24,lo8(40)
 4762 1c32 90E0      		ldi r25,hi8(40)
 4763 1c34 99BD      		out 72+1-32,r25
 4764 1c36 88BD      		out 72-32,r24
 4765               	.LM738:
 4766 1c38 9BBD      		out 74+1-32,r25
 4767 1c3a 8ABD      		out 74-32,r24
 4768               	.LVL184:
 4769               	.LBE412:
 4770               	.LBE411:
 4771               	.LBB413:
 4772               	.LBB414:
 4773               	.LM739:
 4774 1c3c 8FE7      		 ldi r24,lo8(719999)
 4775 1c3e 9CEF      	    ldi r25,hi8(719999)
 4776 1c40 AAE0      	    ldi r26,hlo8(719999)
 4777 1c42 8150      	    1:subi r24,1
 4778 1c44 9040      	    sbci r25,0
 4779 1c46 A040      	    sbci r26,0
 4780 1c48 01F4      	    brne 1b
 4781 1c4a 00C0      		rjmp .
 4782 1c4c 0000      		nop
 4783               	.LBE414:
 4784               	.LBE413:
 4785               	.LM740:
 4786 1c4e 85E0      		ldi r24,lo8(5)
 4787 1c50 0E94 0000 		call RunWhileNormal
 4788               	.LM741:
 4789 1c54 0E94 0000 		call DirTurnRight
 4790               	.LVL185:
 4791               	.LBB415:
 4792               	.LBB416:
 4793               	.LM742:
 4794 1c58 D9BD      		out 72+1-32,r29
 4795 1c5a C8BD      		out 72-32,r28
 4796               	.LM743:
 4797 1c5c DBBD      		out 74+1-32,r29
 4798 1c5e CABD      		out 74-32,r28
 4799               	.LVL186:
 4800               	.LBE416:
 4801               	.LBE415:
 4802               	.LBB417:
 4803               	.LBB418:
 4804               	.LM744:
 4805 1c60 8FEB      		 ldi r24,lo8(599999)
 4806 1c62 97E2      	    ldi r25,hi8(599999)
 4807 1c64 A9E0      	    ldi r26,hlo8(599999)
 4808 1c66 8150      	    1:subi r24,1
 4809 1c68 9040      	    sbci r25,0
 4810 1c6a A040      	    sbci r26,0
 4811 1c6c 01F4      	    brne 1b
 4812 1c6e 00C0      		rjmp .
 4813 1c70 0000      		nop
 4814               	.LBE418:
 4815               	.LBE417:
 4816               	.LM745:
 4817 1c72 8AE0      		ldi r24,lo8(10)
 4818 1c74 0E94 0000 		call RunWhileNormal
 4819               	.LM746:
 4820 1c78 0E94 0000 		call DirTurnLeft
 4821               	.LVL187:
 4822               	.LBB419:
 4823               	.LBB420:
 4824               	.LM747:
 4825 1c7c D9BD      		out 72+1-32,r29
 4826 1c7e C8BD      		out 72-32,r28
 4827               	.LM748:
 4828 1c80 DBBD      		out 74+1-32,r29
 4829 1c82 CABD      		out 74-32,r28
 4830               	.LVL188:
 4831               	.LBE420:
 4832               	.LBE419:
 4833               	.LBB421:
 4834               	.LBB422:
 4835               	.LM749:
 4836 1c84 8FEB      		 ldi r24,lo8(599999)
 4837 1c86 97E2      	    ldi r25,hi8(599999)
 4838 1c88 A9E0      	    ldi r26,hlo8(599999)
 4839 1c8a 8150      	    1:subi r24,1
 4840 1c8c 9040      	    sbci r25,0
 4841 1c8e A040      	    sbci r26,0
 4842 1c90 01F4      	    brne 1b
 4843 1c92 00C0      		rjmp .
 4844 1c94 0000      		nop
 4845               	.LBE422:
 4846               	.LBE421:
 4847               	.LM750:
 4848 1c96 0E94 0000 		call DirForward
 4849               	.LVL189:
 4850               	.LBB423:
 4851               	.LBB424:
 4852               	.LM751:
 4853 1c9a D9BD      		out 72+1-32,r29
 4854 1c9c C8BD      		out 72-32,r28
 4855               	.LM752:
 4856 1c9e DBBD      		out 74+1-32,r29
 4857 1ca0 CABD      		out 74-32,r28
 4858               	.LVL190:
 4859               	.LBE424:
 4860               	.LBE423:
 4861               	.LBB425:
 4862               	.LBB426:
 4863               	.LM753:
 4864 1ca2 8FE3      		 ldi r24,lo8(359999)
 4865 1ca4 9EE7      	    ldi r25,hi8(359999)
 4866 1ca6 A5E0      	    ldi r26,hlo8(359999)
 4867 1ca8 8150      	    1:subi r24,1
 4868 1caa 9040      	    sbci r25,0
 4869 1cac A040      	    sbci r26,0
 4870 1cae 01F4      	    brne 1b
 4871 1cb0 00C0      		rjmp .
 4872 1cb2 0000      		nop
 4873               	.LBE426:
 4874               	.LBE425:
 4875               	.LM754:
 4876 1cb4 0E94 0000 		call DirTurnLeft
 4877               	.LVL191:
 4878               	.LBB427:
 4879               	.LBB428:
 4880               	.LM755:
 4881 1cb8 D9BD      		out 72+1-32,r29
 4882 1cba C8BD      		out 72-32,r28
 4883               	.LM756:
 4884 1cbc DBBD      		out 74+1-32,r29
 4885 1cbe CABD      		out 74-32,r28
 4886               	.LVL192:
 4887               	.LBE428:
 4888               	.LBE427:
 4889               	.LBB429:
 4890               	.LBB430:
 4891               	.LM757:
 4892 1cc0 8FEF      		 ldi r24,lo8(479999)
 4893 1cc2 92E5      	    ldi r25,hi8(479999)
 4894 1cc4 A7E0      	    ldi r26,hlo8(479999)
 4895 1cc6 8150      	    1:subi r24,1
 4896 1cc8 9040      	    sbci r25,0
 4897 1cca A040      	    sbci r26,0
 4898 1ccc 01F4      	    brne 1b
 4899 1cce 00C0      		rjmp .
 4900 1cd0 0000      		nop
 4901               	.LBE430:
 4902               	.LBE429:
 4903               	.LM758:
 4904 1cd2 8AE0      		ldi r24,lo8(10)
 4905 1cd4 0E94 0000 		call RunWhileNormal
 4906               	.LM759:
 4907 1cd8 0E94 0000 		call DirTurnLeft
 4908               	.LVL193:
 4909               	.LBB431:
 4910               	.LBB432:
 4911               	.LM760:
 4912 1cdc D9BD      		out 72+1-32,r29
 4913 1cde C8BD      		out 72-32,r28
 4914               	.LM761:
 4915 1ce0 DBBD      		out 74+1-32,r29
 4916 1ce2 CABD      		out 74-32,r28
 4917               	.LVL194:
 4918               	.LBE432:
 4919               	.LBE431:
 4920               	.LBB433:
 4921               	.LBB434:
 4922               	.LM762:
 4923 1ce4 8FEB      		 ldi r24,lo8(599999)
 4924 1ce6 97E2      	    ldi r25,hi8(599999)
 4925 1ce8 A9E0      	    ldi r26,hlo8(599999)
 4926 1cea 8150      	    1:subi r24,1
 4927 1cec 9040      	    sbci r25,0
 4928 1cee A040      	    sbci r26,0
 4929 1cf0 01F4      	    brne 1b
 4930 1cf2 00C0      		rjmp .
 4931 1cf4 0000      		nop
 4932               	.LBE434:
 4933               	.LBE433:
 4934               	.LM763:
 4935 1cf6 8AE0      		ldi r24,lo8(10)
 4936 1cf8 0E94 0000 		call RunWhileNormal
 4937               	.LM764:
 4938 1cfc 0E94 0000 		call DirTurnRight
 4939               	.LVL195:
 4940               	.LBB435:
 4941               	.LBB436:
 4942               	.LM765:
 4943 1d00 D9BD      		out 72+1-32,r29
 4944 1d02 C8BD      		out 72-32,r28
 4945               	.LM766:
 4946 1d04 DBBD      		out 74+1-32,r29
 4947 1d06 CABD      		out 74-32,r28
 4948               	.LVL196:
 4949               	.LBE436:
 4950               	.LBE435:
 4951               	.LBB437:
 4952               	.LBB438:
 4953               	.LM767:
 4954 1d08 8FEB      		 ldi r24,lo8(599999)
 4955 1d0a 97E2      	    ldi r25,hi8(599999)
 4956 1d0c A9E0      	    ldi r26,hlo8(599999)
 4957 1d0e 8150      	    1:subi r24,1
 4958 1d10 9040      	    sbci r25,0
 4959 1d12 A040      	    sbci r26,0
 4960 1d14 01F4      	    brne 1b
 4961 1d16 00C0      		rjmp .
 4962 1d18 0000      		nop
 4963               	.LBE438:
 4964               	.LBE437:
 4965               	.LM768:
 4966 1d1a 85E0      		ldi r24,lo8(5)
 4967 1d1c 0E94 0000 		call RunWhileNormal
 4968               	.LM769:
 4969 1d20 0E94 0000 		call DirForward
 4970               	.LVL197:
 4971               	.LBB439:
 4972               	.LBB440:
 4973               	.LM770:
 4974 1d24 D9BD      		out 72+1-32,r29
 4975 1d26 C8BD      		out 72-32,r28
 4976               	.LM771:
 4977 1d28 DBBD      		out 74+1-32,r29
 4978 1d2a CABD      		out 74-32,r28
 4979               	.LVL198:
 4980               	.LBE440:
 4981               	.LBE439:
 4982               	.LBB441:
 4983               	.LBB442:
 4984               	.LM772:
 4985 1d2c 8FEF      		 ldi r24,lo8(479999)
 4986 1d2e 92E5      	    ldi r25,hi8(479999)
 4987 1d30 A7E0      	    ldi r26,hlo8(479999)
 4988 1d32 8150      	    1:subi r24,1
 4989 1d34 9040      	    sbci r25,0
 4990 1d36 A040      	    sbci r26,0
 4991 1d38 01F4      	    brne 1b
 4992 1d3a 00C0      		rjmp .
 4993 1d3c 0000      		nop
 4994               	.LBE442:
 4995               	.LBE441:
 4996               	.LM773:
 4997 1d3e 85E0      		ldi r24,lo8(5)
 4998 1d40 0E94 0000 		call RunWhileNormal
 4999               	.LM774:
 5000 1d44 0E94 0000 		call DirTurnRight
 5001               	.LVL199:
 5002               	.LBB443:
 5003               	.LBB444:
 5004               	.LM775:
 5005 1d48 D9BD      		out 72+1-32,r29
 5006 1d4a C8BD      		out 72-32,r28
 5007               	.LM776:
 5008 1d4c DBBD      		out 74+1-32,r29
 5009 1d4e CABD      		out 74-32,r28
 5010               	.LVL200:
 5011               	.LBE444:
 5012               	.LBE443:
 5013               	.LBB445:
 5014               	.LBB446:
 5015               	.LM777:
 5016 1d50 8FEB      		 ldi r24,lo8(599999)
 5017 1d52 97E2      	    ldi r25,hi8(599999)
 5018 1d54 A9E0      	    ldi r26,hlo8(599999)
 5019 1d56 8150      	    1:subi r24,1
 5020 1d58 9040      	    sbci r25,0
 5021 1d5a A040      	    sbci r26,0
 5022 1d5c 01F4      	    brne 1b
 5023 1d5e 00C0      		rjmp .
 5024 1d60 0000      		nop
 5025               	.LBE446:
 5026               	.LBE445:
 5027               	.LM778:
 5028 1d62 0E94 0000 		call DirForward
 5029               	.LVL201:
 5030               	.LBB447:
 5031               	.LBB448:
 5032               	.LM779:
 5033 1d66 D9BD      		out 72+1-32,r29
 5034 1d68 C8BD      		out 72-32,r28
 5035               	.LM780:
 5036 1d6a DBBD      		out 74+1-32,r29
 5037 1d6c CABD      		out 74-32,r28
 5038               	.LVL202:
 5039               	.LBE448:
 5040               	.LBE447:
 5041               	.LBB449:
 5042               	.LBB450:
 5043               	.LM781:
 5044 1d6e 8FE7      		 ldi r24,lo8(719999)
 5045 1d70 9CEF      	    ldi r25,hi8(719999)
 5046 1d72 AAE0      	    ldi r26,hlo8(719999)
 5047 1d74 8150      	    1:subi r24,1
 5048 1d76 9040      	    sbci r25,0
 5049 1d78 A040      	    sbci r26,0
 5050 1d7a 01F4      	    brne 1b
 5051 1d7c 00C0      		rjmp .
 5052 1d7e 0000      		nop
 5053               	.LBE450:
 5054               	.LBE449:
 5055               	.LM782:
 5056 1d80 0E94 0000 		call DirTurnLeft
 5057               	.LVL203:
 5058               	.LBB451:
 5059               	.LBB452:
 5060               	.LM783:
 5061 1d84 D9BD      		out 72+1-32,r29
 5062 1d86 C8BD      		out 72-32,r28
 5063               	.LM784:
 5064 1d88 DBBD      		out 74+1-32,r29
 5065 1d8a CABD      		out 74-32,r28
 5066               	.LVL204:
 5067               	.LBE452:
 5068               	.LBE451:
 5069               	.LBB453:
 5070               	.LBB454:
 5071               	.LM785:
 5072 1d8c 8FEB      		 ldi r24,lo8(599999)
 5073 1d8e 97E2      	    ldi r25,hi8(599999)
 5074 1d90 A9E0      	    ldi r26,hlo8(599999)
 5075 1d92 8150      	    1:subi r24,1
 5076 1d94 9040      	    sbci r25,0
 5077 1d96 A040      	    sbci r26,0
 5078 1d98 01F4      	    brne 1b
 5079 1d9a 00C0      		rjmp .
 5080 1d9c 0000      		nop
 5081               	.LBE454:
 5082               	.LBE453:
 5083               	.LM786:
 5084 1d9e 85E0      		ldi r24,lo8(5)
 5085 1da0 0E94 0000 		call RunWhileNormal
 5086               	.LM787:
 5087 1da4 0E94 0000 		call DirTurnLeft
 5088               	.LVL205:
 5089               	.LBB455:
 5090               	.LBB456:
 5091               	.LM788:
 5092 1da8 D9BD      		out 72+1-32,r29
 5093 1daa C8BD      		out 72-32,r28
 5094               	.LM789:
 5095 1dac DBBD      		out 74+1-32,r29
 5096 1dae CABD      		out 74-32,r28
 5097               	.LVL206:
 5098               	.LBE456:
 5099               	.LBE455:
 5100               	.LBB457:
 5101               	.LBB458:
 5102               	.LM790:
 5103 1db0 8FEB      		 ldi r24,lo8(599999)
 5104 1db2 97E2      	    ldi r25,hi8(599999)
 5105 1db4 A9E0      	    ldi r26,hlo8(599999)
 5106 1db6 8150      	    1:subi r24,1
 5107 1db8 9040      	    sbci r25,0
 5108 1dba A040      	    sbci r26,0
 5109 1dbc 01F4      	    brne 1b
 5110 1dbe 00C0      		rjmp .
 5111 1dc0 0000      		nop
 5112               	.LBE458:
 5113               	.LBE457:
 5114               	.LM791:
 5115 1dc2 85E0      		ldi r24,lo8(5)
 5116 1dc4 0E94 0000 		call RunWhileNormal
 5117               	.LM792:
 5118 1dc8 0E94 0000 		call DirTurnRight
 5119               	.LVL207:
 5120               	.LBB459:
 5121               	.LBB460:
 5122               	.LM793:
 5123 1dcc D9BD      		out 72+1-32,r29
 5124 1dce C8BD      		out 72-32,r28
 5125               	.LM794:
 5126 1dd0 DBBD      		out 74+1-32,r29
 5127 1dd2 CABD      		out 74-32,r28
 5128               	.LVL208:
 5129               	.LBE460:
 5130               	.LBE459:
 5131               	.LBB461:
 5132               	.LBB462:
 5133               	.LM795:
 5134 1dd4 8FEB      		 ldi r24,lo8(599999)
 5135 1dd6 97E2      	    ldi r25,hi8(599999)
 5136 1dd8 A9E0      	    ldi r26,hlo8(599999)
 5137 1dda 8150      	    1:subi r24,1
 5138 1ddc 9040      	    sbci r25,0
 5139 1dde A040      	    sbci r26,0
 5140 1de0 01F4      	    brne 1b
 5141 1de2 00C0      		rjmp .
 5142 1de4 0000      		nop
 5143               	.LBE462:
 5144               	.LBE461:
 5145               	.LM796:
 5146 1de6 8AE0      		ldi r24,lo8(10)
 5147 1de8 0E94 0000 		call RunWhileNormal
 5148               	/* epilogue start */
 5149               	.LM797:
 5150 1dec DF91      		pop r29
 5151 1dee CF91      		pop r28
 5152 1df0 0895      		ret
 5153               	.LFE27:
 5155               	.global	RunMapping
 5157               	RunMapping:
 5158               	.LFB17:
 5159               	.LM798:
 5160               	.LVL209:
 5161               	/* prologue: function */
 5162               	/* frame size = 0 */
 5163               	/* stack size = 0 */
 5164               	.L__stack_usage = 0
 5165               	.LBB463:
 5166               	.LBB464:
 5167               	.LM799:
 5168 1df2 2FEB      		 ldi r18,lo8(599999)
 5169 1df4 37E2      	    ldi r19,hi8(599999)
 5170 1df6 49E0      	    ldi r20,hlo8(599999)
 5171 1df8 2150      	    1:subi r18,1
 5172 1dfa 3040      	    sbci r19,0
 5173 1dfc 4040      	    sbci r20,0
 5174 1dfe 01F4      	    brne 1b
 5175 1e00 00C0      		rjmp .
 5176 1e02 0000      		nop
 5177               	.LBE464:
 5178               	.LBE463:
 5179               	.LM800:
 5180 1e04 8823      		tst r24
 5181 1e06 01F4      		brne .L258
 5182               	.LM801:
 5183 1e08 0E94 0000 		call RunProgram
 5184               	.LVL210:
 5185 1e0c 00C0      		rjmp .L259
 5186               	.LVL211:
 5187               	.L258:
 5188               	.LM802:
 5189 1e0e 8130      		cpi r24,lo8(1)
 5190 1e10 01F4      		brne .L260
 5191               	.LM803:
 5192 1e12 0E94 0000 		call RunEb00ke01
 5193               	.LVL212:
 5194 1e16 00C0      		rjmp .L263
 5195               	.LVL213:
 5196               	.L260:
 5197               	.LM804:
 5198 1e18 8230      		cpi r24,lo8(2)
 5199 1e1a 01F4      		brne .L261
 5200               	.LM805:
 5201 1e1c 8AE0      		ldi r24,lo8(10)
 5202               	.LVL214:
 5203 1e1e 0E94 0000 		call RunWhileNormal
 5204               	.L263:
 5205               	.LM806:
 5206 1e22 0E94 0000 		call RunEb01ke02
 5207 1e26 00C0      		rjmp .L259
 5208               	.LVL215:
 5209               	.L261:
 5210               	.LM807:
 5211 1e28 8330      		cpi r24,lo8(3)
 5212 1e2a 01F4      		brne .L262
 5213               	.LM808:
 5214 1e2c 8AE0      		ldi r24,lo8(10)
 5215               	.LVL216:
 5216 1e2e 0E94 0000 		call RunWhileNormal
 5217 1e32 00C0      		rjmp .L259
 5218               	.LVL217:
 5219               	.L262:
 5220               	.LM809:
 5221 1e34 8430      		cpi r24,lo8(4)
 5222 1e36 01F4      		brne .L259
 5223               	.LM810:
 5224 1e38 0E94 0000 		call RunEb00ke01
 5225               	.LVL218:
 5226               	.L259:
 5227               	.LM811:
 5228 1e3c 1092 0000 		sts counter,__zero_reg__
 5229 1e40 1092 0000 		sts counter+1,__zero_reg__
 5230 1e44 1092 0000 		sts counter+2,__zero_reg__
 5231 1e48 1092 0000 		sts counter+3,__zero_reg__
 5232               	.LM812:
 5233 1e4c 1092 0000 		sts gState+1,__zero_reg__
 5234 1e50 1092 0000 		sts gState,__zero_reg__
 5235               	.LM813:
 5236 1e54 1BBC      		out 74+1-32,__zero_reg__
 5237 1e56 1ABC      		out 74-32,__zero_reg__
 5238               	.LM814:
 5239 1e58 19BC      		out 72+1-32,__zero_reg__
 5240 1e5a 18BC      		out 72-32,__zero_reg__
 5241               	/* epilogue start */
 5242               	.LM815:
 5243 1e5c 0895      		ret
 5244               	.LFE17:
 5246               	.global	DriveMove
 5248               	DriveMove:
 5249               	.LFB60:
 5250               	.LM816:
 5251               	.LVL219:
 5252               	/* prologue: function */
 5253               	/* frame size = 0 */
 5254               	/* stack size = 0 */
 5255               	.L__stack_usage = 0
 5256               	.LM817:
 5257 1e5e 70E0      		ldi r23,lo8(0)
 5258 1e60 79BD      		out 72+1-32,r23
 5259 1e62 68BD      		out 72-32,r22
 5260               	.LM818:
 5261 1e64 90E0      		ldi r25,lo8(0)
 5262 1e66 9BBD      		out 74+1-32,r25
 5263 1e68 8ABD      		out 74-32,r24
 5264               	/* epilogue start */
 5265               	.LM819:
 5266 1e6a 0895      		ret
 5267               	.LFE60:
 5269               	.global	ProgMapping
 5271               	ProgMapping:
 5272               	.LFB61:
 5273               	.LM820:
 5274 1e6c DF92      		push r13
 5275 1e6e EF92      		push r14
 5276 1e70 FF92      		push r15
 5277 1e72 0F93      		push r16
 5278 1e74 1F93      		push r17
 5279 1e76 CF93      		push r28
 5280 1e78 DF93      		push r29
 5281               	/* prologue: function */
 5282               	/* frame size = 0 */
 5283               	/* stack size = 7 */
 5284               	.L__stack_usage = 7
 5285               	.LM821:
 5286 1e7a 1092 0000 		sts gMazeMapNum,__zero_reg__
 5287               	.LM822:
 5288 1e7e 1092 0000 		sts gMazeMapTot,__zero_reg__
 5289               	.LVL220:
 5290               	.LM823:
 5291 1e82 0E94 0000 		call LCDclr
 5292               	.LM824:
 5293 1e86 09E1      		ldi r16,lo8(25)
 5294 1e88 D02E      		mov r13,r16
 5295               	.LM825:
 5296 1e8a C7E0      		ldi r28,lo8(7)
 5297 1e8c D0E0      		ldi r29,hi8(7)
 5298               	.LM826:
 5299 1e8e 00C0      		rjmp .L289
 5300               	.LVL221:
 5301               	.L270:
 5302               	.LM827:
 5303 1e90 0E94 0000 		call ButtonNext
 5304 1e94 8111      		cpse r24,__zero_reg__
 5305               	.LM828:
 5306 1e96 D394      		inc r13
 5307               	.LVL222:
 5308               	.L267:
 5309               	.LM829:
 5310 1e98 0E94 0000 		call ButtonPrev
 5311 1e9c 8111      		cpse r24,__zero_reg__
 5312               	.LM830:
 5313 1e9e DA94      		dec r13
 5314               	.LVL223:
 5315               	.L268:
 5316               	.LM831:
 5317 1ea0 8D2D      		mov r24,r13
 5318 1ea2 90E0      		ldi r25,lo8(0)
 5319 1ea4 60E0      		ldi r22,lo8(0)
 5320 1ea6 40E0      		ldi r20,lo8(0)
 5321 1ea8 23E0      		ldi r18,lo8(3)
 5322 1eaa 0E94 0000 		call cetak_bil
 5323               	.LM832:
 5324 1eae 0E94 0000 		call ButtonBack
 5325 1eb2 8823      		tst r24
 5326 1eb4 01F0      		breq .L289
 5327               	.LM833:
 5328 1eb6 D093 0000 		sts gState+1,r29
 5329 1eba C093 0000 		sts gState,r28
 5330               	.LM834:
 5331 1ebe 0E94 0000 		call Run
 5332               	.LVL224:
 5333               	.L289:
 5334               	.LM835:
 5335 1ec2 0E94 0000 		call ButtonEnter
 5336 1ec6 8823      		tst r24
 5337 1ec8 01F0      		breq .L270
 5338               	.LM836:
 5339 1eca 00E0      		ldi r16,lo8(0)
 5340               	.LBB465:
 5341               	.LBB466:
 5342               	.LM837:
 5343 1ecc CEE1      		ldi r28,lo8(30)
 5344 1ece D0E0      		ldi r29,hi8(30)
 5345 1ed0 00C0      		rjmp .L292
 5346               	.LVL225:
 5347               	.L274:
 5348               	.LBE466:
 5349               	.LBE465:
 5350               	.LM838:
 5351 1ed2 0E94 0000 		call PIDCalculateExecute
 5352               	.LVL226:
 5353               	.L284:
 5354               	.LM839:
 5355 1ed6 00E0      		ldi r16,lo8(0)
 5356               	.L292:
 5357               	.LVL227:
 5358               	.LM840:
 5359 1ed8 0E94 0000 		call PIDGetError
 5360 1edc 8823      		tst r24
 5361 1ede 01F0      		breq .L272
 5362               	.LM841:
 5363 1ee0 8091 0000 		lds r24,gSensH
 5364 1ee4 8823      		tst r24
 5365 1ee6 01F4      		brne .L273
 5366 1ee8 8091 0000 		lds r24,gSensL
 5367 1eec 8823      		tst r24
 5368 1eee 01F0      		breq .L272
 5369               	.L273:
 5370               	.LM842:
 5371 1ef0 8091 0000 		lds r24,gSensA
 5372 1ef4 60E0      		ldi r22,lo8(0)
 5373 1ef6 0E94 0000 		call isclear
 5374 1efa 8823      		tst r24
 5375 1efc 01F0      		breq .L272
 5376 1efe 8091 0000 		lds r24,gSensA
 5377 1f02 61E0      		ldi r22,lo8(1)
 5378 1f04 0E94 0000 		call isclear
 5379 1f08 8823      		tst r24
 5380 1f0a 01F4      		brne .L274
 5381               	.L272:
 5382               	.LM843:
 5383 1f0c 8091 0000 		lds r24,gSensH
 5384 1f10 8823      		tst r24
 5385 1f12 01F0      		breq .+2
 5386 1f14 00C0      		rjmp .L275
 5387               	.LM844:
 5388 1f16 8091 0000 		lds r24,gSensL
 5389 1f1a 8823      		tst r24
 5390 1f1c 01F0      		breq .+2
 5391 1f1e 00C0      		rjmp .L275
 5392 1f20 8091 0000 		lds r24,gSensA
 5393 1f24 60E0      		ldi r22,lo8(0)
 5394 1f26 0E94 0000 		call isset
 5395 1f2a 8823      		tst r24
 5396 1f2c 01F4      		brne .L276
 5397 1f2e 8091 0000 		lds r24,gSensA
 5398 1f32 61E0      		ldi r22,lo8(1)
 5399 1f34 0E94 0000 		call isset
 5400 1f38 8823      		tst r24
 5401 1f3a 01F0      		breq .L275
 5402               	.L276:
 5403               	.LM845:
 5404 1f3c 8091 0000 		lds r24,gSensA
 5405 1f40 60E0      		ldi r22,lo8(0)
 5406 1f42 0E94 0000 		call isset
 5407 1f46 8823      		tst r24
 5408 1f48 01F4      		brne .L290
 5409 1f4a 00C0      		rjmp .L294
 5410               	.L280:
 5411               	.LM846:
 5412 1f4c 0E94 0000 		call SensorReadDigital
 5413               	.LM847:
 5414 1f50 0E94 0000 		call DirTurnLeft
 5415               	.LVL228:
 5416               	.LBB468:
 5417               	.LBB467:
 5418               	.LM848:
 5419 1f54 D9BD      		out 72+1-32,r29
 5420 1f56 C8BD      		out 72-32,r28
 5421               	.LM849:
 5422 1f58 DBBD      		out 74+1-32,r29
 5423 1f5a CABD      		out 74-32,r28
 5424               	.LVL229:
 5425               	.L290:
 5426               	.LBE467:
 5427               	.LBE468:
 5428               	.LM850:
 5429 1f5c 8091 0000 		lds r24,gSensL
 5430 1f60 8823      		tst r24
 5431 1f62 01F0      		breq .+2
 5432 1f64 00C0      		rjmp .L284
 5433               	.LM851:
 5434 1f66 8091 0000 		lds r24,gSensH
 5435 1f6a 8823      		tst r24
 5436 1f6c 01F0      		breq .L280
 5437 1f6e 00C0      		rjmp .L284
 5438               	.L294:
 5439               	.LM852:
 5440 1f70 8091 0000 		lds r24,gSensA
 5441 1f74 61E0      		ldi r22,lo8(1)
 5442 1f76 0E94 0000 		call isset
 5443 1f7a 8823      		tst r24
 5444 1f7c 01F4      		brne .L291
 5445 1f7e 00C0      		rjmp .L284
 5446               	.L282:
 5447               	.LM853:
 5448 1f80 0E94 0000 		call SensorReadDigital
 5449               	.LM854:
 5450 1f84 0E94 0000 		call DirTurnRight
 5451               	.LVL230:
 5452               	.LBB469:
 5453               	.LBB470:
 5454               	.LM855:
 5455 1f88 D9BD      		out 72+1-32,r29
 5456 1f8a C8BD      		out 72-32,r28
 5457               	.LM856:
 5458 1f8c DBBD      		out 74+1-32,r29
 5459 1f8e CABD      		out 74-32,r28
 5460               	.LVL231:
 5461               	.L291:
 5462               	.LBE470:
 5463               	.LBE469:
 5464               	.LM857:
 5465 1f90 8091 0000 		lds r24,gSensL
 5466 1f94 8823      		tst r24
 5467 1f96 01F0      		breq .+2
 5468 1f98 00C0      		rjmp .L284
 5469               	.LM858:
 5470 1f9a 8091 0000 		lds r24,gSensH
 5471 1f9e 8823      		tst r24
 5472 1fa0 01F0      		breq .L282
 5473 1fa2 00C0      		rjmp .L284
 5474               	.L275:
 5475               	.LM859:
 5476 1fa4 0F5F      		subi r16,lo8(-(1))
 5477               	.LVL232:
 5478               	.LM860:
 5479 1fa6 D016      		cp r13,r16
 5480 1fa8 00F0      		brlo .+2
 5481 1faa 00C0      		rjmp .L292
 5482               	.LM861:
 5483 1fac 8091 0000 		lds r24,gMazeMapNum
 5484 1fb0 90E0      		ldi r25,lo8(0)
 5485 1fb2 60E0      		ldi r22,lo8(0)
 5486 1fb4 40E0      		ldi r20,lo8(0)
 5487 1fb6 23E0      		ldi r18,lo8(3)
 5488 1fb8 0E94 0000 		call cetak_bil
 5489               	.LM862:
 5490 1fbc 8091 0000 		lds r24,gSensH
 5491 1fc0 90E0      		ldi r25,lo8(0)
 5492 1fc2 60E0      		ldi r22,lo8(0)
 5493 1fc4 41E0      		ldi r20,lo8(1)
 5494 1fc6 23E0      		ldi r18,lo8(3)
 5495 1fc8 0E94 0000 		call cetak_bil
 5496               	.LM863:
 5497 1fcc 8091 0000 		lds r24,gSensL
 5498 1fd0 90E0      		ldi r25,lo8(0)
 5499 1fd2 64E0      		ldi r22,lo8(4)
 5500 1fd4 41E0      		ldi r20,lo8(1)
 5501 1fd6 23E0      		ldi r18,lo8(3)
 5502 1fd8 0E94 0000 		call cetak_bil
 5503               	.LM864:
 5504 1fdc 8091 0000 		lds r24,gSensA
 5505 1fe0 90E0      		ldi r25,lo8(0)
 5506 1fe2 68E0      		ldi r22,lo8(8)
 5507 1fe4 41E0      		ldi r20,lo8(1)
 5508 1fe6 23E0      		ldi r18,lo8(3)
 5509 1fe8 0E94 0000 		call cetak_bil
 5510               	.LM865:
 5511 1fec 8091 0000 		lds r24,gMazeMapNum
 5512 1ff0 8F5F      		subi r24,lo8(-(1))
 5513 1ff2 8093 0000 		sts gMazeMapNum,r24
 5514               	.LM866:
 5515 1ff6 8091 0000 		lds r24,gMazeMapTot
 5516 1ffa 8F5F      		subi r24,lo8(-(1))
 5517 1ffc 8093 0000 		sts gMazeMapTot,r24
 5518               	.LM867:
 5519 2000 EAB4      		in r14,74-32
 5520 2002 FBB4      		in r15,74+1-32
 5521               	.LVL233:
 5522               	.LM868:
 5523 2004 08B5      		in r16,72-32
 5524 2006 19B5      		in r17,72+1-32
 5525               	.LVL234:
 5526               	.LM869:
 5527 2008 1BBC      		out 74+1-32,__zero_reg__
 5528 200a 1ABC      		out 74-32,__zero_reg__
 5529               	.LM870:
 5530 200c 19BC      		out 72+1-32,__zero_reg__
 5531 200e 18BC      		out 72-32,__zero_reg__
 5532               	.LM871:
 5533 2010 0E94 0000 		call ButtonWait
 5534               	.LM872:
 5535 2014 FF24      		clr r15
 5536 2016 FBBC      		out 74+1-32,r15
 5537 2018 EABC      		out 74-32,r14
 5538               	.LM873:
 5539 201a 10E0      		ldi r17,lo8(0)
 5540 201c 19BD      		out 72+1-32,r17
 5541 201e 08BD      		out 72-32,r16
 5542               	.LVL235:
 5543               	.LM874:
 5544 2020 1092 0000 		sts gDriveError,__zero_reg__
 5545               	.LM875:
 5546 2024 1092 0000 		sts gDriveLastError,__zero_reg__
 5547 2028 00C0      		rjmp .L284
 5548               	.LFE61:
 5550               	.global	MapWriteTurn
 5552               	MapWriteTurn:
 5553               	.LFB62:
 5554               	.LM876:
 5555               	.LVL236:
 5556 202a 1F93      		push r17
 5557 202c CF93      		push r28
 5558 202e DF93      		push r29
 5559               	/* prologue: function */
 5560               	/* frame size = 0 */
 5561               	/* stack size = 3 */
 5562               	.L__stack_usage = 3
 5563 2030 162F      		mov r17,r22
 5564               	.LM877:
 5565 2032 C82F      		mov r28,r24
 5566 2034 D0E0      		ldi r29,lo8(0)
 5567 2036 C258      		subi r28,lo8(-(382))
 5568 2038 DE4F      		sbci r29,hi8(-(382))
 5569 203a CE01      		movw r24,r28
 5570               	.LVL237:
 5571 203c 0E94 0000 		call __eerd_byte_m32
 5572               	.LVL238:
 5573               	.LM878:
 5574 2040 682F      		mov r22,r24
 5575 2042 6C7F      		andi r22,lo8(-4)
 5576               	.LVL239:
 5577               	.LM879:
 5578 2044 612B      		or r22,r17
 5579               	.LVL240:
 5580               	.LM880:
 5581 2046 CE01      		movw r24,r28
 5582 2048 0E94 0000 		call __eeupd_byte_m32
 5583               	.LVL241:
 5584               	/* epilogue start */
 5585               	.LM881:
 5586 204c DF91      		pop r29
 5587 204e CF91      		pop r28
 5588 2050 1F91      		pop r17
 5589               	.LVL242:
 5590 2052 0895      		ret
 5591               	.LFE62:
 5593               	.global	MapReadTurn
 5595               	MapReadTurn:
 5596               	.LFB63:
 5597               	.LM882:
 5598               	.LVL243:
 5599               	/* prologue: function */
 5600               	/* frame size = 0 */
 5601               	/* stack size = 0 */
 5602               	.L__stack_usage = 0
 5603               	.LM883:
 5604 2054 90E0      		ldi r25,lo8(0)
 5605 2056 8258      		subi r24,lo8(-(382))
 5606 2058 9E4F      		sbci r25,hi8(-(382))
 5607               	.LVL244:
 5608 205a 0E94 0000 		call __eerd_byte_m32
 5609               	.LVL245:
 5610               	.LM884:
 5611 205e 8370      		andi r24,lo8(3)
 5612               	.LVL246:
 5613               	/* epilogue start */
 5614 2060 0895      		ret
 5615               	.LFE63:
 5617               	.global	MapWriteCaseA
 5619               	MapWriteCaseA:
 5620               	.LFB64:
 5621               	.LM885:
 5622               	.LVL247:
 5623 2062 0F93      		push r16
 5624 2064 1F93      		push r17
 5625 2066 DF93      		push r29
 5626 2068 CF93      		push r28
 5627 206a 0F92      		push __tmp_reg__
 5628 206c CDB7      		in r28,__SP_L__
 5629 206e DEB7      		in r29,__SP_H__
 5630               	/* prologue: function */
 5631               	/* frame size = 1 */
 5632               	/* stack size = 5 */
 5633               	.L__stack_usage = 5
 5634               	.LM886:
 5635 2070 082F      		mov r16,r24
 5636 2072 10E0      		ldi r17,lo8(0)
 5637 2074 0258      		subi r16,lo8(-(382))
 5638 2076 1E4F      		sbci r17,hi8(-(382))
 5639 2078 C801      		movw r24,r16
 5640               	.LVL248:
 5641 207a 6983      		std Y+1,r22
 5642 207c 0E94 0000 		call __eerd_byte_m32
 5643               	.LVL249:
 5644               	.LM887:
 5645 2080 8F71      		andi r24,lo8(31)
 5646               	.LVL250:
 5647               	.LM888:
 5648 2082 6981      		ldd r22,Y+1
 5649               	.LVL251:
 5650 2084 6295      		swap r22
 5651               	.LVL252:
 5652 2086 660F      		lsl r22
 5653 2088 607E      		andi r22,lo8(-32)
 5654 208a 682B      		or r22,r24
 5655               	.LVL253:
 5656               	.LM889:
 5657 208c C801      		movw r24,r16
 5658 208e 0E94 0000 		call __eeupd_byte_m32
 5659               	.LVL254:
 5660               	/* epilogue start */
 5661               	.LM890:
 5662 2092 0F90      		pop __tmp_reg__
 5663 2094 CF91      		pop r28
 5664 2096 DF91      		pop r29
 5665 2098 1F91      		pop r17
 5666 209a 0F91      		pop r16
 5667 209c 0895      		ret
 5668               	.LFE64:
 5670               	.global	MapWriteUntilA
 5672               	MapWriteUntilA:
 5673               	.LFB65:
 5674               	.LM891:
 5675               	.LVL255:
 5676 209e 0F93      		push r16
 5677 20a0 1F93      		push r17
 5678 20a2 DF93      		push r29
 5679 20a4 CF93      		push r28
 5680 20a6 0F92      		push __tmp_reg__
 5681 20a8 CDB7      		in r28,__SP_L__
 5682 20aa DEB7      		in r29,__SP_H__
 5683               	/* prologue: function */
 5684               	/* frame size = 1 */
 5685               	/* stack size = 5 */
 5686               	.L__stack_usage = 5
 5687               	.LM892:
 5688 20ac 082F      		mov r16,r24
 5689 20ae 10E0      		ldi r17,lo8(0)
 5690 20b0 0258      		subi r16,lo8(-(382))
 5691 20b2 1E4F      		sbci r17,hi8(-(382))
 5692 20b4 C801      		movw r24,r16
 5693               	.LVL256:
 5694 20b6 6983      		std Y+1,r22
 5695 20b8 0E94 0000 		call __eerd_byte_m32
 5696               	.LVL257:
 5697               	.LM893:
 5698 20bc 837E      		andi r24,lo8(-29)
 5699               	.LVL258:
 5700               	.LM894:
 5701 20be 6981      		ldd r22,Y+1
 5702               	.LVL259:
 5703 20c0 660F      		lsl r22
 5704 20c2 660F      		lsl r22
 5705               	.LVL260:
 5706 20c4 682B      		or r22,r24
 5707               	.LVL261:
 5708               	.LM895:
 5709 20c6 C801      		movw r24,r16
 5710 20c8 0E94 0000 		call __eeupd_byte_m32
 5711               	.LVL262:
 5712               	/* epilogue start */
 5713               	.LM896:
 5714 20cc 0F90      		pop __tmp_reg__
 5715 20ce CF91      		pop r28
 5716 20d0 DF91      		pop r29
 5717 20d2 1F91      		pop r17
 5718 20d4 0F91      		pop r16
 5719 20d6 0895      		ret
 5720               	.LFE65:
 5722               	.global	MapReadCaseA
 5724               	MapReadCaseA:
 5725               	.LFB66:
 5726               	.LM897:
 5727               	.LVL263:
 5728               	/* prologue: function */
 5729               	/* frame size = 0 */
 5730               	/* stack size = 0 */
 5731               	.L__stack_usage = 0
 5732               	.LM898:
 5733 20d8 90E0      		ldi r25,lo8(0)
 5734 20da 8258      		subi r24,lo8(-(382))
 5735 20dc 9E4F      		sbci r25,hi8(-(382))
 5736               	.LVL264:
 5737 20de 0E94 0000 		call __eerd_byte_m32
 5738               	.LVL265:
 5739               	.LM899:
 5740 20e2 8295      		swap r24
 5741               	.LVL266:
 5742 20e4 8695      		lsr r24
 5743 20e6 8770      		andi r24,lo8(7)
 5744               	/* epilogue start */
 5745 20e8 0895      		ret
 5746               	.LFE66:
 5748               	.global	MapReadUntilA
 5750               	MapReadUntilA:
 5751               	.LFB67:
 5752               	.LM900:
 5753               	.LVL267:
 5754               	/* prologue: function */
 5755               	/* frame size = 0 */
 5756               	/* stack size = 0 */
 5757               	.L__stack_usage = 0
 5758               	.LM901:
 5759 20ea 90E0      		ldi r25,lo8(0)
 5760 20ec 8258      		subi r24,lo8(-(382))
 5761 20ee 9E4F      		sbci r25,hi8(-(382))
 5762               	.LVL268:
 5763 20f0 0E94 0000 		call __eerd_byte_m32
 5764               	.LVL269:
 5765               	.LM902:
 5766 20f4 8C71      		andi r24,lo8(28)
 5767               	.LVL270:
 5768               	.LM903:
 5769 20f6 8695      		lsr r24
 5770 20f8 8695      		lsr r24
 5771               	.LVL271:
 5772               	/* epilogue start */
 5773 20fa 0895      		ret
 5774               	.LFE67:
 5776               	.global	MapWriteTCAUA
 5778               	MapWriteTCAUA:
 5779               	.LFB68:
 5780               	.LM904:
 5781               	.LVL272:
 5782               	/* prologue: function */
 5783               	/* frame size = 0 */
 5784               	/* stack size = 0 */
 5785               	.L__stack_usage = 0
 5786               	.LM905:
 5787 20fc 90E0      		ldi r25,lo8(0)
 5788 20fe 8258      		subi r24,lo8(-(382))
 5789 2100 9E4F      		sbci r25,hi8(-(382))
 5790               	.LVL273:
 5791 2102 0E94 0000 		call __eeupd_byte_m32
 5792               	.LVL274:
 5793               	/* epilogue start */
 5794               	.LM906:
 5795 2106 0895      		ret
 5796               	.LFE68:
 5798               	.global	MapReadTCAUA
 5800               	MapReadTCAUA:
 5801               	.LFB69:
 5802               	.LM907:
 5803               	.LVL275:
 5804               	/* prologue: function */
 5805               	/* frame size = 0 */
 5806               	/* stack size = 0 */
 5807               	.L__stack_usage = 0
 5808               	.LM908:
 5809 2108 90E0      		ldi r25,lo8(0)
 5810 210a 8258      		subi r24,lo8(-(382))
 5811 210c 9E4F      		sbci r25,hi8(-(382))
 5812               	.LVL276:
 5813 210e 0E94 0000 		call __eerd_byte_m32
 5814               	/* epilogue start */
 5815               	.LM909:
 5816 2112 0895      		ret
 5817               	.LFE69:
 5819               	.global	GetCursor
 5821               	GetCursor:
 5822               	.LFB70:
 5823               	.LM910:
 5824               	.LVL277:
 5825               	/* prologue: function */
 5826               	/* frame size = 0 */
 5827               	/* stack size = 0 */
 5828               	.L__stack_usage = 0
 5829               	.LM911:
 5830 2114 6AE0      		ldi r22,lo8(10)
 5831 2116 70E0      		ldi r23,hi8(10)
 5832 2118 0E94 0000 		call __udivmodhi4
 5833               	.LVL278:
 5834               	/* epilogue start */
 5835               	.LM912:
 5836 211c 0895      		ret
 5837               	.LFE70:
 5839               	.global	GetParent
 5841               	GetParent:
 5842               	.LFB71:
 5843               	.LM913:
 5844               	.LVL279:
 5845               	/* prologue: function */
 5846               	/* frame size = 0 */
 5847               	/* stack size = 0 */
 5848               	.L__stack_usage = 0
 5849               	.LM914:
 5850 211e 6AE0      		ldi r22,lo8(10)
 5851 2120 70E0      		ldi r23,hi8(10)
 5852 2122 0E94 0000 		call __udivmodhi4
 5853               	.LVL280:
 5854               	.LM915:
 5855 2126 862F      		mov r24,r22
 5856               	/* epilogue start */
 5857 2128 0895      		ret
 5858               	.LFE71:
 5860               	.global	GetChild
 5862               	GetChild:
 5863               	.LFB72:
 5864               	.LM916:
 5865               	.LVL281:
 5866               	/* prologue: function */
 5867               	/* frame size = 0 */
 5868               	/* stack size = 0 */
 5869               	.L__stack_usage = 0
 5870               	.LM917:
 5871 212a 982F      		mov r25,r24
 5872 212c 990F      		lsl r25
 5873 212e 892F      		mov r24,r25
 5874               	.LVL282:
 5875 2130 880F      		lsl r24
 5876 2132 880F      		lsl r24
 5877 2134 890F      		add r24,r25
 5878               	.LM918:
 5879 2136 860F      		add r24,r22
 5880               	/* epilogue start */
 5881 2138 0895      		ret
 5882               	.LFE72:
 5884               	.global	ReStrainScroll
 5886               	ReStrainScroll:
 5887               	.LFB73:
 5888               	.LM919:
 5889               	/* prologue: function */
 5890               	/* frame size = 0 */
 5891               	/* stack size = 0 */
 5892               	.L__stack_usage = 0
 5893               	.LM920:
 5894 213a 9091 0000 		lds r25,gScrollNum
 5895 213e 8091 0000 		lds r24,gScrollMax
 5896 2142 9923      		tst r25
 5897 2144 01F4      		brne .L307
 5898               	.LM921:
 5899 2146 8093 0000 		sts gScrollNum,r24
 5900 214a 0895      		ret
 5901               	.L307:
 5902               	.LM922:
 5903 214c 8917      		cp r24,r25
 5904 214e 00F4      		brsh .L306
 5905               	.LM923:
 5906 2150 81E0      		ldi r24,lo8(1)
 5907 2152 8093 0000 		sts gScrollNum,r24
 5908               	.L306:
 5909 2156 0895      		ret
 5910               	.LFE73:
 5912               		.data
 5913               	.LC5:
 5914 0038 2300      		.string	"#"
 5915               	.LC6:
 5916 003a 2D00      		.string	"-"
 5917               		.text
 5918               	.global	PrintScroll
 5920               	PrintScroll:
 5921               	.LFB74:
 5922               	.LM924:
 5923               	.LVL283:
 5924 2158 FF92      		push r15
 5925 215a 0F93      		push r16
 5926 215c 1F93      		push r17
 5927               	/* prologue: function */
 5928               	/* frame size = 0 */
 5929               	/* stack size = 3 */
 5930               	.L__stack_usage = 3
 5931 215e 082F      		mov r16,r24
 5932 2160 162F      		mov r17,r22
 5933               	.LVL284:
 5934               	.LM925:
 5935 2162 80E0      		ldi r24,lo8(0)
 5936               	.LVL285:
 5937 2164 6FE0      		ldi r22,lo8(15)
 5938               	.LVL286:
 5939 2166 41E0      		ldi r20,lo8(1)
 5940 2168 0E94 0000 		call lcdhapus
 5941               	.LVL287:
 5942               	.LM926:
 5943 216c 912F      		mov r25,r17
 5944 216e 9695      		lsr r25
 5945               	.LM927:
 5946 2170 88E0      		ldi r24,lo8(8)
 5947 2172 891B      		sub r24,r25
 5948 2174 61E0      		ldi r22,lo8(1)
 5949 2176 0E94 0000 		call LCDGotoXY
 5950               	.LM928:
 5951 217a FF24      		clr r15
 5952 217c F394      		inc r15
 5953 217e 00C0      		rjmp .L310
 5954               	.LVL288:
 5955               	.L313:
 5956               	.LM929:
 5957 2180 F016      		cp r15,r16
 5958 2182 01F4      		brne .L311
 5959               	.LM930:
 5960 2184 80E0      		ldi r24,lo8(.LC5)
 5961 2186 90E0      		ldi r25,hi8(.LC5)
 5962 2188 00C0      		rjmp .L314
 5963               	.L311:
 5964               	.LM931:
 5965 218a 80E0      		ldi r24,lo8(.LC6)
 5966 218c 90E0      		ldi r25,hi8(.LC6)
 5967               	.L314:
 5968 218e 61E0      		ldi r22,lo8(1)
 5969 2190 0E94 0000 		call LCDstring
 5970               	.LM932:
 5971 2194 F394      		inc r15
 5972               	.LVL289:
 5973               	.L310:
 5974               	.LM933:
 5975 2196 1F15      		cp r17,r15
 5976 2198 00F4      		brsh .L313
 5977               	/* epilogue start */
 5978               	.LM934:
 5979 219a 1F91      		pop r17
 5980               	.LVL290:
 5981 219c 0F91      		pop r16
 5982               	.LVL291:
 5983 219e FF90      		pop r15
 5984               	.LVL292:
 5985 21a0 0895      		ret
 5986               	.LFE74:
 5988               		.data
 5989               	.LC7:
 5990 003c 5255 4E20 		.string	"RUN           0B"
 5990      2020 2020 
 5990      2020 2020 
 5990      2020 3042 
 5990      00
 5991               	.LC8:
 5992 004d 5255 4E20 		.string	"RUN MAPPING   0B"
 5992      4D41 5050 
 5992      494E 4720 
 5992      2020 3042 
 5992      00
 5993               	.LC9:
 5994 005e 4D41 5050 		.string	"MAPPING C1    B"
 5994      494E 4720 
 5994      4331 2020 
 5994      2020 4200 
 5995               	.LC10:
 5996 006e 4D41 5050 		.string	"MAPPING C2    B"
 5996      494E 4720 
 5996      4332 2020 
 5996      2020 4200 
 5997               	.LC11:
 5998 007e 4D41 5050 		.string	"MAPPING C3    B"
 5998      494E 4720 
 5998      4333 2020 
 5998      2020 4200 
 5999               	.LC12:
 6000 008e 5255 4E20 		.string	"RUN TEST CTR   B"
 6000      5445 5354 
 6000      2043 5452 
 6000      2020 2042 
 6000      00
 6001               	.LC13:
 6002 009f 4341 4C49 		.string	"CALIBRATE     0B"
 6002      4252 4154 
 6002      4520 2020 
 6002      2020 3042 
 6002      00
 6003               	.LC14:
 6004 00b0 5345 5454 		.string	"SETTING       0B"
 6004      494E 4720 
 6004      2020 2020 
 6004      2020 3042 
 6004      00
 6005               	.LC15:
 6006 00c1 5255 4E20 		.string	"RUN M. EBOTEC 0B"
 6006      4D2E 2045 
 6006      424F 5445 
 6006      4320 3042 
 6006      00
 6007               	.LC16:
 6008 00d2 5255 4E20 		.string	"RUN LEARN      B"
 6008      4C45 4152 
 6008      4E20 2020 
 6008      2020 2042 
 6008      00
 6009               		.text
 6010               	.global	Menu
 6012               	Menu:
 6013               	.LFB75:
 6014               	.LM935:
 6015 21a2 2F92      		push r2
 6016 21a4 3F92      		push r3
 6017 21a6 4F92      		push r4
 6018 21a8 5F92      		push r5
 6019 21aa 6F92      		push r6
 6020 21ac 7F92      		push r7
 6021 21ae 8F92      		push r8
 6022 21b0 9F92      		push r9
 6023 21b2 AF92      		push r10
 6024 21b4 BF92      		push r11
 6025 21b6 CF92      		push r12
 6026 21b8 DF92      		push r13
 6027 21ba EF92      		push r14
 6028 21bc FF92      		push r15
 6029 21be 0F93      		push r16
 6030 21c0 1F93      		push r17
 6031 21c2 DF93      		push r29
 6032 21c4 CF93      		push r28
 6033 21c6 0F92      		push __tmp_reg__
 6034 21c8 CDB7      		in r28,__SP_L__
 6035 21ca DEB7      		in r29,__SP_H__
 6036               	/* prologue: function */
 6037               	/* frame size = 1 */
 6038               	/* stack size = 19 */
 6039               	.L__stack_usage = 19
 6040               	.LM936:
 6041 21cc 89E0      		ldi r24,lo8(9)
 6042 21ce 8093 0000 		sts gScrollMax,r24
 6043               	.LM937:
 6044 21d2 0E94 0000 		call ReStrainScroll
 6045               	.LBB471:
 6046               	.LM938:
 6047 21d6 01E0      		ldi r16,lo8(1)
 6048 21d8 10E0      		ldi r17,hi8(1)
 6049               	.LBE471:
 6050               	.LBB472:
 6051               	.LM939:
 6052 21da 66E0      		ldi r22,lo8(6)
 6053 21dc E62E      		mov r14,r22
 6054 21de F12C      		mov r15,__zero_reg__
 6055               	.LBE472:
 6056               	.LBB473:
 6057               	.LM940:
 6058 21e0 55E0      		ldi r21,lo8(5)
 6059 21e2 C52E      		mov r12,r21
 6060 21e4 D12C      		mov r13,__zero_reg__
 6061               	.LBE473:
 6062               	.LBB474:
 6063               	.LM941:
 6064 21e6 48E0      		ldi r20,lo8(8)
 6065 21e8 A42E      		mov r10,r20
 6066 21ea B12C      		mov r11,__zero_reg__
 6067               	.LBE474:
 6068               	.LBB475:
 6069               	.LM942:
 6070 21ec 33E0      		ldi r19,lo8(3)
 6071 21ee 832E      		mov r8,r19
 6072 21f0 912C      		mov r9,__zero_reg__
 6073               	.LBE475:
 6074               	.LBB476:
 6075               	.LM943:
 6076 21f2 22E0      		ldi r18,lo8(2)
 6077 21f4 622E      		mov r6,r18
 6078 21f6 712C      		mov r7,__zero_reg__
 6079               	.LBE476:
 6080               	.LBB477:
 6081               	.LM944:
 6082 21f8 9AE0      		ldi r25,lo8(10)
 6083 21fa 492E      		mov r4,r25
 6084 21fc 512C      		mov r5,__zero_reg__
 6085               	.LBE477:
 6086               	.LBB478:
 6087               	.LM945:
 6088 21fe 89E0      		ldi r24,lo8(9)
 6089 2200 282E      		mov r2,r24
 6090 2202 312C      		mov r3,__zero_reg__
 6091               	.LBE478:
 6092               	.LM946:
 6093 2204 00C0      		rjmp .L350
 6094               	.L347:
 6095               	.LM947:
 6096 2206 0E94 0000 		call ReStrainScroll
 6097               	.LM948:
 6098 220a 8091 0000 		lds r24,gScrollNum
 6099 220e 6091 0000 		lds r22,gScrollMax
 6100 2212 0E94 0000 		call PrintScroll
 6101               	.LM949:
 6102 2216 2091 0000 		lds r18,gScrollNum
 6103               	.LVL293:
 6104 221a 2730      		cpi r18,lo8(7)
 6105 221c 01F4      		brne .L317
 6106               	.LBB479:
 6107               	.LM950:
 6108 221e 80E0      		ldi r24,lo8(0)
 6109 2220 60E0      		ldi r22,lo8(0)
 6110 2222 0E94 0000 		call LCDGotoXY
 6111               	.LM951:
 6112 2226 80E0      		ldi r24,lo8(.LC7)
 6113 2228 90E0      		ldi r25,hi8(.LC7)
 6114 222a 60E1      		ldi r22,lo8(16)
 6115 222c 0E94 0000 		call LCDstring
 6116               	.LM952:
 6117 2230 0E94 0000 		call ButtonRead
 6118               	.LVL294:
 6119               	.LM953:
 6120 2234 8130      		cpi r24,lo8(1)
 6121 2236 01F0      		breq .+2
 6122 2238 00C0      		rjmp .L345
 6123               	.LM954:
 6124 223a 27E0      		ldi r18,lo8(7)
 6125 223c 30E0      		ldi r19,hi8(7)
 6126 223e 3093 0000 		sts gState+1,r19
 6127 2242 2093 0000 		sts gState,r18
 6128 2246 00C0      		rjmp .L351
 6129               	.LVL295:
 6130               	.L317:
 6131               	.LBE479:
 6132               	.LM955:
 6133 2248 2930      		cpi r18,lo8(9)
 6134 224a 01F4      		brne .L321
 6135               	.LBB480:
 6136               	.LM956:
 6137 224c 80E0      		ldi r24,lo8(0)
 6138 224e 60E0      		ldi r22,lo8(0)
 6139 2250 0E94 0000 		call LCDGotoXY
 6140               	.LM957:
 6141 2254 80E0      		ldi r24,lo8(.LC8)
 6142 2256 90E0      		ldi r25,hi8(.LC8)
 6143 2258 60E1      		ldi r22,lo8(16)
 6144 225a 0E94 0000 		call LCDstring
 6145               	.LM958:
 6146 225e 0E94 0000 		call ButtonRead
 6147               	.LVL296:
 6148               	.LM959:
 6149 2262 8130      		cpi r24,lo8(1)
 6150 2264 01F0      		breq .+2
 6151 2266 00C0      		rjmp .L345
 6152               	.LM960:
 6153 2268 3092 0000 		sts gState+1,r3
 6154 226c 2092 0000 		sts gState,r2
 6155 2270 00C0      		rjmp .L351
 6156               	.LVL297:
 6157               	.L321:
 6158               	.LBE480:
 6159               	.LM961:
 6160 2272 2223      		tst r18
 6161 2274 01F4      		brne .L324
 6162               	.LBB481:
 6163               	.LM962:
 6164 2276 80E0      		ldi r24,lo8(0)
 6165 2278 60E0      		ldi r22,lo8(0)
 6166 227a 0E94 0000 		call LCDGotoXY
 6167               	.LM963:
 6168 227e 80E0      		ldi r24,lo8(.LC9)
 6169 2280 90E0      		ldi r25,hi8(.LC9)
 6170 2282 60E1      		ldi r22,lo8(16)
 6171 2284 0E94 0000 		call LCDstring
 6172               	.LM964:
 6173 2288 0E94 0000 		call ButtonRead
 6174               	.LVL298:
 6175               	.LM965:
 6176 228c 8130      		cpi r24,lo8(1)
 6177 228e 01F0      		breq .+2
 6178 2290 00C0      		rjmp .L345
 6179               	.LM966:
 6180 2292 5092 0000 		sts gState+1,r5
 6181 2296 4092 0000 		sts gState,r4
 6182 229a 00C0      		rjmp .L351
 6183               	.LVL299:
 6184               	.L324:
 6185               	.LBE481:
 6186               	.LM967:
 6187 229c 2230      		cpi r18,lo8(2)
 6188 229e 01F4      		brne .L327
 6189               	.LBB482:
 6190               	.LM968:
 6191 22a0 80E0      		ldi r24,lo8(0)
 6192 22a2 60E0      		ldi r22,lo8(0)
 6193 22a4 0E94 0000 		call LCDGotoXY
 6194               	.LM969:
 6195 22a8 80E0      		ldi r24,lo8(.LC10)
 6196 22aa 90E0      		ldi r25,hi8(.LC10)
 6197 22ac 60E1      		ldi r22,lo8(16)
 6198 22ae 0E94 0000 		call LCDstring
 6199               	.LM970:
 6200 22b2 0E94 0000 		call ButtonRead
 6201               	.LVL300:
 6202               	.LM971:
 6203 22b6 8130      		cpi r24,lo8(1)
 6204 22b8 01F0      		breq .+2
 6205 22ba 00C0      		rjmp .L345
 6206               	.LM972:
 6207 22bc 7092 0000 		sts gState+1,r7
 6208 22c0 6092 0000 		sts gState,r6
 6209 22c4 00C0      		rjmp .L351
 6210               	.LVL301:
 6211               	.L327:
 6212               	.LBE482:
 6213               	.LM973:
 6214 22c6 2330      		cpi r18,lo8(3)
 6215 22c8 01F4      		brne .L330
 6216               	.LBB483:
 6217               	.LM974:
 6218 22ca 80E0      		ldi r24,lo8(0)
 6219 22cc 60E0      		ldi r22,lo8(0)
 6220 22ce 0E94 0000 		call LCDGotoXY
 6221               	.LM975:
 6222 22d2 80E0      		ldi r24,lo8(.LC11)
 6223 22d4 90E0      		ldi r25,hi8(.LC11)
 6224 22d6 60E1      		ldi r22,lo8(16)
 6225 22d8 0E94 0000 		call LCDstring
 6226               	.LM976:
 6227 22dc 0E94 0000 		call ButtonRead
 6228               	.LVL302:
 6229               	.LM977:
 6230 22e0 8130      		cpi r24,lo8(1)
 6231 22e2 01F0      		breq .+2
 6232 22e4 00C0      		rjmp .L345
 6233               	.LM978:
 6234 22e6 9092 0000 		sts gState+1,r9
 6235 22ea 8092 0000 		sts gState,r8
 6236 22ee 00C0      		rjmp .L351
 6237               	.LVL303:
 6238               	.L330:
 6239               	.LBE483:
 6240               	.LM979:
 6241 22f0 2830      		cpi r18,lo8(8)
 6242 22f2 01F4      		brne .L333
 6243               	.LBB484:
 6244               	.LM980:
 6245 22f4 80E0      		ldi r24,lo8(0)
 6246 22f6 60E0      		ldi r22,lo8(0)
 6247 22f8 0E94 0000 		call LCDGotoXY
 6248               	.LM981:
 6249 22fc 80E0      		ldi r24,lo8(.LC12)
 6250 22fe 90E0      		ldi r25,hi8(.LC12)
 6251 2300 60E1      		ldi r22,lo8(16)
 6252 2302 0E94 0000 		call LCDstring
 6253               	.LM982:
 6254 2306 0E94 0000 		call ButtonRead
 6255               	.LVL304:
 6256               	.LM983:
 6257 230a 8130      		cpi r24,lo8(1)
 6258 230c 01F0      		breq .+2
 6259 230e 00C0      		rjmp .L345
 6260               	.LM984:
 6261 2310 B092 0000 		sts gState+1,r11
 6262 2314 A092 0000 		sts gState,r10
 6263 2318 00C0      		rjmp .L351
 6264               	.LVL305:
 6265               	.L333:
 6266               	.LBE484:
 6267               	.LM985:
 6268 231a 2530      		cpi r18,lo8(5)
 6269 231c 01F4      		brne .L336
 6270               	.LBB485:
 6271               	.LM986:
 6272 231e 80E0      		ldi r24,lo8(0)
 6273 2320 60E0      		ldi r22,lo8(0)
 6274 2322 0E94 0000 		call LCDGotoXY
 6275               	.LM987:
 6276 2326 80E0      		ldi r24,lo8(.LC13)
 6277 2328 90E0      		ldi r25,hi8(.LC13)
 6278 232a 60E1      		ldi r22,lo8(16)
 6279 232c 0E94 0000 		call LCDstring
 6280               	.LM988:
 6281 2330 0E94 0000 		call ButtonRead
 6282               	.LVL306:
 6283               	.LM989:
 6284 2334 8130      		cpi r24,lo8(1)
 6285 2336 01F0      		breq .+2
 6286 2338 00C0      		rjmp .L345
 6287               	.LM990:
 6288 233a D092 0000 		sts gState+1,r13
 6289 233e C092 0000 		sts gState,r12
 6290 2342 00C0      		rjmp .L351
 6291               	.LVL307:
 6292               	.L336:
 6293               	.LBE485:
 6294               	.LM991:
 6295 2344 2630      		cpi r18,lo8(6)
 6296 2346 01F4      		brne .L339
 6297               	.LBB486:
 6298               	.LM992:
 6299 2348 80E0      		ldi r24,lo8(0)
 6300 234a 60E0      		ldi r22,lo8(0)
 6301 234c 0E94 0000 		call LCDGotoXY
 6302               	.LM993:
 6303 2350 80E0      		ldi r24,lo8(.LC14)
 6304 2352 90E0      		ldi r25,hi8(.LC14)
 6305 2354 60E1      		ldi r22,lo8(16)
 6306 2356 0E94 0000 		call LCDstring
 6307               	.LM994:
 6308 235a 0E94 0000 		call ButtonRead
 6309               	.LVL308:
 6310               	.LM995:
 6311 235e 8130      		cpi r24,lo8(1)
 6312 2360 01F4      		brne .L345
 6313               	.LM996:
 6314 2362 F092 0000 		sts gState+1,r15
 6315 2366 E092 0000 		sts gState,r14
 6316               	.LM997:
 6317 236a 31E0      		ldi r19,lo8(1)
 6318 236c 3093 0000 		sts gScrollNum,r19
 6319 2370 00C0      		rjmp .L350
 6320               	.LVL309:
 6321               	.L339:
 6322               	.LBE486:
 6323               	.LM998:
 6324 2372 2430      		cpi r18,lo8(4)
 6325 2374 01F4      		brne .L342
 6326               	.LBB487:
 6327               	.LM999:
 6328 2376 80E0      		ldi r24,lo8(0)
 6329 2378 60E0      		ldi r22,lo8(0)
 6330 237a 0E94 0000 		call LCDGotoXY
 6331               	.LM1000:
 6332 237e 80E0      		ldi r24,lo8(.LC15)
 6333 2380 90E0      		ldi r25,hi8(.LC15)
 6334 2382 60E1      		ldi r22,lo8(16)
 6335 2384 0E94 0000 		call LCDstring
 6336               	.LM1001:
 6337 2388 0E94 0000 		call ButtonRead
 6338               	.LVL310:
 6339               	.LM1002:
 6340 238c 8130      		cpi r24,lo8(1)
 6341 238e 01F4      		brne .L345
 6342               	.LM1003:
 6343 2390 E4E0      		ldi r30,lo8(4)
 6344 2392 F0E0      		ldi r31,hi8(4)
 6345 2394 F093 0000 		sts gState+1,r31
 6346 2398 E093 0000 		sts gState,r30
 6347 239c 00C0      		rjmp .L351
 6348               	.LVL311:
 6349               	.L342:
 6350               	.LBE487:
 6351               	.LM1004:
 6352 239e 2130      		cpi r18,lo8(1)
 6353 23a0 01F4      		brne .L350
 6354               	.LBB488:
 6355               	.LM1005:
 6356 23a2 80E0      		ldi r24,lo8(0)
 6357 23a4 60E0      		ldi r22,lo8(0)
 6358 23a6 2983      		std Y+1,r18
 6359 23a8 0E94 0000 		call LCDGotoXY
 6360               	.LM1006:
 6361 23ac 80E0      		ldi r24,lo8(.LC16)
 6362 23ae 90E0      		ldi r25,hi8(.LC16)
 6363 23b0 60E1      		ldi r22,lo8(16)
 6364 23b2 0E94 0000 		call LCDstring
 6365               	.LM1007:
 6366 23b6 0E94 0000 		call ButtonRead
 6367               	.LVL312:
 6368               	.LM1008:
 6369 23ba 2981      		ldd r18,Y+1
 6370 23bc 8130      		cpi r24,lo8(1)
 6371 23be 01F4      		brne .L345
 6372               	.LM1009:
 6373 23c0 1093 0000 		sts gState+1,r17
 6374 23c4 0093 0000 		sts gState,r16
 6375               	.LM1010:
 6376 23c8 2093 0000 		sts gScrollNum,r18
 6377 23cc 00C0      		rjmp .L350
 6378               	.LVL313:
 6379               	.L345:
 6380               	.LM1011:
 6381 23ce 8330      		cpi r24,lo8(3)
 6382 23d0 01F4      		brne .L346
 6383               	.LM1012:
 6384 23d2 8091 0000 		lds r24,gScrollNum
 6385 23d6 8F5F      		subi r24,lo8(-(1))
 6386 23d8 00C0      		rjmp .L351
 6387               	.L346:
 6388               	.LM1013:
 6389 23da 8823      		tst r24
 6390 23dc 01F4      		brne .L350
 6391               	.LM1014:
 6392 23de 8091 0000 		lds r24,gScrollNum
 6393 23e2 8150      		subi r24,lo8(-(-1))
 6394               	.L351:
 6395 23e4 8093 0000 		sts gScrollNum,r24
 6396               	.LVL314:
 6397               	.L350:
 6398               	.LBE488:
 6399               	.LM1015:
 6400 23e8 8091 0000 		lds r24,gState
 6401 23ec 9091 0000 		lds r25,gState+1
 6402 23f0 0097      		sbiw r24,0
 6403 23f2 01F4      		brne .+2
 6404 23f4 00C0      		rjmp .L347
 6405               	/* epilogue start */
 6406               	.LM1016:
 6407 23f6 0F90      		pop __tmp_reg__
 6408 23f8 CF91      		pop r28
 6409 23fa DF91      		pop r29
 6410 23fc 1F91      		pop r17
 6411 23fe 0F91      		pop r16
 6412 2400 FF90      		pop r15
 6413 2402 EF90      		pop r14
 6414 2404 DF90      		pop r13
 6415 2406 CF90      		pop r12
 6416 2408 BF90      		pop r11
 6417 240a AF90      		pop r10
 6418 240c 9F90      		pop r9
 6419 240e 8F90      		pop r8
 6420 2410 7F90      		pop r7
 6421 2412 6F90      		pop r6
 6422 2414 5F90      		pop r5
 6423 2416 4F90      		pop r4
 6424 2418 3F90      		pop r3
 6425 241a 2F90      		pop r2
 6426 241c 0895      		ret
 6427               	.LFE75:
 6429               		.data
 6430               	.LC17:
 6431 00e3 4445 4255 		.string	"DEBUG         1B"
 6431      4720 2020 
 6431      2020 2020 
 6431      2020 3142 
 6431      00
 6432               	.LC18:
 6433 00f4 5049 4426 		.string	"PID&SPEED     1B"
 6433      5350 4545 
 6433      4420 2020 
 6433      2020 3142 
 6433      00
 6434               	.LC19:
 6435 0105 5341 5645 		.string	"SAVES         1B"
 6435      5320 2020 
 6435      2020 2020 
 6435      2020 3142 
 6435      00
 6436               	.LC20:
 6437 0116 4552 524F 		.string	"ERROR/BOBOT   1B"
 6437      522F 424F 
 6437      424F 5420 
 6437      2020 3142 
 6437      00
 6438               	.LC21:
 6439 0127 5341 4D50 		.string	"SAMPLING      1B"
 6439      4C49 4E47 
 6439      2020 2020 
 6439      2020 3142 
 6439      00
 6440               	.LC22:
 6441 0138 5345 4E53 		.string	"SENSOR-SET    1B"
 6441      4F52 2D53 
 6441      4554 2020 
 6441      2020 3142 
 6441      00
 6442               		.text
 6443               	.global	SettingMenu
 6445               	SettingMenu:
 6446               	.LFB76:
 6447               	.LM1017:
 6448 241e 4F92      		push r4
 6449 2420 5F92      		push r5
 6450 2422 7F92      		push r7
 6451 2424 8F92      		push r8
 6452 2426 9F92      		push r9
 6453 2428 AF92      		push r10
 6454 242a BF92      		push r11
 6455 242c CF92      		push r12
 6456 242e DF92      		push r13
 6457 2430 EF92      		push r14
 6458 2432 FF92      		push r15
 6459 2434 0F93      		push r16
 6460 2436 1F93      		push r17
 6461 2438 DF93      		push r29
 6462 243a CF93      		push r28
 6463 243c 0F92      		push __tmp_reg__
 6464 243e CDB7      		in r28,__SP_L__
 6465 2440 DEB7      		in r29,__SP_H__
 6466               	/* prologue: function */
 6467               	/* frame size = 1 */
 6468               	/* stack size = 16 */
 6469               	.L__stack_usage = 16
 6470               	.LM1018:
 6471 2442 86E0      		ldi r24,lo8(6)
 6472 2444 8093 0000 		sts gScrollMax,r24
 6473               	.LBB489:
 6474               	.LM1019:
 6475 2448 16E0      		ldi r17,lo8(6)
 6476 244a 712E      		mov r7,r17
 6477               	.LM1020:
 6478 244c 00E4      		ldi r16,lo8(64)
 6479 244e 10E0      		ldi r17,hi8(64)
 6480               	.LBE489:
 6481               	.LBB490:
 6482               	.LM1021:
 6483 2450 B1E4      		ldi r27,lo8(65)
 6484 2452 4B2E      		mov r4,r27
 6485 2454 512C      		mov r5,__zero_reg__
 6486               	.LBE490:
 6487               	.LBB491:
 6488               	.LM1022:
 6489 2456 A2E4      		ldi r26,lo8(66)
 6490 2458 EA2E      		mov r14,r26
 6491 245a F12C      		mov r15,__zero_reg__
 6492               	.LBE491:
 6493               	.LBB492:
 6494               	.LM1023:
 6495 245c FFE3      		ldi r31,lo8(63)
 6496 245e CF2E      		mov r12,r31
 6497 2460 D12C      		mov r13,__zero_reg__
 6498               	.LBE492:
 6499               	.LBB493:
 6500               	.LM1024:
 6501 2462 EEE3      		ldi r30,lo8(62)
 6502 2464 AE2E      		mov r10,r30
 6503 2466 B12C      		mov r11,__zero_reg__
 6504               	.LBE493:
 6505               	.LBB494:
 6506               	.LM1025:
 6507 2468 7DE3      		ldi r23,lo8(61)
 6508 246a 872E      		mov r8,r23
 6509 246c 912C      		mov r9,__zero_reg__
 6510               	.LBE494:
 6511               	.LM1026:
 6512 246e 00C0      		rjmp .L401
 6513               	.L398:
 6514               	.LM1027:
 6515 2470 0E94 0000 		call ReStrainScroll
 6516               	.LM1028:
 6517 2474 8091 0000 		lds r24,gScrollNum
 6518 2478 6091 0000 		lds r22,gScrollMax
 6519 247c 0E94 0000 		call PrintScroll
 6520               	.LM1029:
 6521 2480 2091 0000 		lds r18,gScrollNum
 6522               	.LVL315:
 6523 2484 2130      		cpi r18,lo8(1)
 6524 2486 01F4      		brne .L374
 6525               	.LBB495:
 6526               	.LM1030:
 6527 2488 80E0      		ldi r24,lo8(0)
 6528 248a 60E0      		ldi r22,lo8(0)
 6529 248c 0E94 0000 		call LCDGotoXY
 6530               	.LM1031:
 6531 2490 80E0      		ldi r24,lo8(.LC17)
 6532 2492 90E0      		ldi r25,hi8(.LC17)
 6533 2494 60E1      		ldi r22,lo8(16)
 6534 2496 0E94 0000 		call LCDstring
 6535               	.LM1032:
 6536 249a 0E94 0000 		call ButtonRead
 6537               	.LVL316:
 6538               	.LM1033:
 6539 249e 8130      		cpi r24,lo8(1)
 6540 24a0 01F4      		brne .L375
 6541               	.LM1034:
 6542 24a2 9092 0000 		sts gState+1,r9
 6543 24a6 8092 0000 		sts gState,r8
 6544 24aa 00C0      		rjmp .L402
 6545               	.LVL317:
 6546               	.L375:
 6547               	.LM1035:
 6548 24ac 8330      		cpi r24,lo8(3)
 6549 24ae 01F0      		breq .+2
 6550 24b0 00C0      		rjmp .L396
 6551               	.L404:
 6552               	.LM1036:
 6553 24b2 8091 0000 		lds r24,gScrollNum
 6554 24b6 8F5F      		subi r24,lo8(-(1))
 6555               	.L402:
 6556 24b8 8093 0000 		sts gScrollNum,r24
 6557 24bc 00C0      		rjmp .L401
 6558               	.L374:
 6559               	.LVL318:
 6560               	.LBE495:
 6561               	.LM1037:
 6562 24be 2230      		cpi r18,lo8(2)
 6563 24c0 01F4      		brne .L379
 6564               	.LBB496:
 6565               	.LM1038:
 6566 24c2 80E0      		ldi r24,lo8(0)
 6567 24c4 60E0      		ldi r22,lo8(0)
 6568 24c6 0E94 0000 		call LCDGotoXY
 6569               	.LM1039:
 6570 24ca 80E0      		ldi r24,lo8(.LC18)
 6571 24cc 90E0      		ldi r25,hi8(.LC18)
 6572 24ce 60E1      		ldi r22,lo8(16)
 6573 24d0 0E94 0000 		call LCDstring
 6574               	.LM1040:
 6575 24d4 0E94 0000 		call ButtonRead
 6576               	.LVL319:
 6577               	.LM1041:
 6578 24d8 8130      		cpi r24,lo8(1)
 6579 24da 01F4      		brne .L375
 6580               	.LM1042:
 6581 24dc B092 0000 		sts gState+1,r11
 6582 24e0 A092 0000 		sts gState,r10
 6583 24e4 00C0      		rjmp .L402
 6584               	.LVL320:
 6585               	.L379:
 6586               	.LBE496:
 6587               	.LM1043:
 6588 24e6 2330      		cpi r18,lo8(3)
 6589 24e8 01F4      		brne .L383
 6590               	.LBB497:
 6591               	.LM1044:
 6592 24ea 80E0      		ldi r24,lo8(0)
 6593 24ec 60E0      		ldi r22,lo8(0)
 6594 24ee 0E94 0000 		call LCDGotoXY
 6595               	.LM1045:
 6596 24f2 80E0      		ldi r24,lo8(.LC19)
 6597 24f4 90E0      		ldi r25,hi8(.LC19)
 6598 24f6 60E1      		ldi r22,lo8(16)
 6599 24f8 0E94 0000 		call LCDstring
 6600               	.LM1046:
 6601 24fc 0E94 0000 		call ButtonRead
 6602               	.LVL321:
 6603               	.LM1047:
 6604 2500 8130      		cpi r24,lo8(1)
 6605 2502 01F4      		brne .L375
 6606               	.LM1048:
 6607 2504 D092 0000 		sts gState+1,r13
 6608 2508 C092 0000 		sts gState,r12
 6609 250c 00C0      		rjmp .L402
 6610               	.LVL322:
 6611               	.L383:
 6612               	.LBE497:
 6613               	.LM1049:
 6614 250e 2630      		cpi r18,lo8(6)
 6615 2510 01F4      		brne .L387
 6616               	.LBB498:
 6617               	.LM1050:
 6618 2512 80E0      		ldi r24,lo8(0)
 6619 2514 60E0      		ldi r22,lo8(0)
 6620 2516 2983      		std Y+1,r18
 6621 2518 0E94 0000 		call LCDGotoXY
 6622               	.LM1051:
 6623 251c 80E0      		ldi r24,lo8(.LC20)
 6624 251e 90E0      		ldi r25,hi8(.LC20)
 6625 2520 60E1      		ldi r22,lo8(16)
 6626 2522 0E94 0000 		call LCDstring
 6627               	.LM1052:
 6628 2526 0E94 0000 		call ButtonRead
 6629               	.LVL323:
 6630               	.LM1053:
 6631 252a 2981      		ldd r18,Y+1
 6632 252c 8130      		cpi r24,lo8(1)
 6633 252e 01F4      		brne .L388
 6634               	.LM1054:
 6635 2530 F092 0000 		sts gState+1,r15
 6636 2534 E092 0000 		sts gState,r14
 6637 2538 00C0      		rjmp .L402
 6638               	.L388:
 6639               	.LM1055:
 6640 253a 8330      		cpi r24,lo8(3)
 6641 253c 01F4      		brne .+2
 6642 253e 00C0      		rjmp .L404
 6643               	.L389:
 6644               	.LM1056:
 6645 2540 8823      		tst r24
 6646 2542 01F0      		breq .L405
 6647               	.L390:
 6648               	.LM1057:
 6649 2544 8230      		cpi r24,lo8(2)
 6650 2546 01F0      		breq .+2
 6651 2548 00C0      		rjmp .L401
 6652               	.LM1058:
 6653 254a 1092 0000 		sts gState+1,__zero_reg__
 6654 254e 1092 0000 		sts gState,__zero_reg__
 6655               	.LVL324:
 6656               	.LM1059:
 6657 2552 2093 0000 		sts gScrollNum,r18
 6658 2556 00C0      		rjmp .L401
 6659               	.LVL325:
 6660               	.L387:
 6661               	.LBE498:
 6662               	.LM1060:
 6663 2558 2530      		cpi r18,lo8(5)
 6664 255a 01F4      		brne .L391
 6665               	.LBB499:
 6666               	.LM1061:
 6667 255c 80E0      		ldi r24,lo8(0)
 6668 255e 60E0      		ldi r22,lo8(0)
 6669 2560 0E94 0000 		call LCDGotoXY
 6670               	.LM1062:
 6671 2564 80E0      		ldi r24,lo8(.LC21)
 6672 2566 90E0      		ldi r25,hi8(.LC21)
 6673 2568 60E1      		ldi r22,lo8(16)
 6674 256a 0E94 0000 		call LCDstring
 6675               	.LM1063:
 6676 256e 0E94 0000 		call ButtonRead
 6677               	.LVL326:
 6678               	.LM1064:
 6679 2572 8130      		cpi r24,lo8(1)
 6680 2574 01F0      		breq .+2
 6681 2576 00C0      		rjmp .L375
 6682               	.LM1065:
 6683 2578 5092 0000 		sts gState+1,r5
 6684 257c 4092 0000 		sts gState,r4
 6685 2580 00C0      		rjmp .L402
 6686               	.LVL327:
 6687               	.L391:
 6688               	.LBE499:
 6689               	.LM1066:
 6690 2582 2430      		cpi r18,lo8(4)
 6691 2584 01F4      		brne .L401
 6692               	.LBB500:
 6693               	.LM1067:
 6694 2586 80E0      		ldi r24,lo8(0)
 6695 2588 60E0      		ldi r22,lo8(0)
 6696 258a 0E94 0000 		call LCDGotoXY
 6697               	.LM1068:
 6698 258e 80E0      		ldi r24,lo8(.LC22)
 6699 2590 90E0      		ldi r25,hi8(.LC22)
 6700 2592 60E1      		ldi r22,lo8(16)
 6701 2594 0E94 0000 		call LCDstring
 6702               	.LM1069:
 6703 2598 0E94 0000 		call ButtonRead
 6704               	.LVL328:
 6705               	.LM1070:
 6706 259c 8130      		cpi r24,lo8(1)
 6707 259e 01F0      		breq .+2
 6708 25a0 00C0      		rjmp .L375
 6709               	.LM1071:
 6710 25a2 1093 0000 		sts gState+1,r17
 6711 25a6 0093 0000 		sts gState,r16
 6712 25aa 00C0      		rjmp .L402
 6713               	.LVL329:
 6714               	.L396:
 6715               	.LM1072:
 6716 25ac 8823      		tst r24
 6717 25ae 01F4      		brne .L397
 6718               	.L405:
 6719               	.LM1073:
 6720 25b0 8091 0000 		lds r24,gScrollNum
 6721 25b4 8150      		subi r24,lo8(-(-1))
 6722 25b6 00C0      		rjmp .L402
 6723               	.L397:
 6724               	.LM1074:
 6725 25b8 8230      		cpi r24,lo8(2)
 6726 25ba 01F4      		brne .L401
 6727               	.LM1075:
 6728 25bc 1092 0000 		sts gState+1,__zero_reg__
 6729 25c0 1092 0000 		sts gState,__zero_reg__
 6730               	.LVL330:
 6731               	.LM1076:
 6732 25c4 7092 0000 		sts gScrollNum,r7
 6733               	.LVL331:
 6734               	.L401:
 6735               	.LBE500:
 6736               	.LM1077:
 6737 25c8 8091 0000 		lds r24,gState
 6738 25cc 9091 0000 		lds r25,gState+1
 6739 25d0 8630      		cpi r24,6
 6740 25d2 9105      		cpc r25,__zero_reg__
 6741 25d4 01F4      		brne .+2
 6742 25d6 00C0      		rjmp .L398
 6743               	/* epilogue start */
 6744               	.LM1078:
 6745 25d8 0F90      		pop __tmp_reg__
 6746 25da CF91      		pop r28
 6747 25dc DF91      		pop r29
 6748 25de 1F91      		pop r17
 6749 25e0 0F91      		pop r16
 6750 25e2 FF90      		pop r15
 6751 25e4 EF90      		pop r14
 6752 25e6 DF90      		pop r13
 6753 25e8 CF90      		pop r12
 6754 25ea BF90      		pop r11
 6755 25ec AF90      		pop r10
 6756 25ee 9F90      		pop r9
 6757 25f0 8F90      		pop r8
 6758 25f2 7F90      		pop r7
 6759 25f4 5F90      		pop r5
 6760 25f6 4F90      		pop r4
 6761 25f8 0895      		ret
 6762               	.LFE76:
 6764               	.global	SettingErrorMenu
 6766               	SettingErrorMenu:
 6767               	.LFB77:
 6768               	.LM1079:
 6769               	/* prologue: function */
 6770               	/* frame size = 0 */
 6771               	/* stack size = 0 */
 6772               	.L__stack_usage = 0
 6773               	/* epilogue start */
 6774               	.LM1080:
 6775 25fa 0895      		ret
 6776               	.LFE77:
 6778               		.data
 6779               	.LC23:
 6780 0149 5350 4545 		.string	"SPEED         [B"
 6780      4420 2020 
 6780      2020 2020 
 6780      2020 5B42 
 6780      00
 6781               	.LC24:
 6782 015a 4B50 2020 		.string	"KP            [B"
 6782      2020 2020 
 6782      2020 2020 
 6782      2020 5B42 
 6782      00
 6783               	.LC25:
 6784 016b 4B44 2020 		.string	"KD            [B"
 6784      2020 2020 
 6784      2020 2020 
 6784      2020 5B42 
 6784      00
 6785               	.LC26:
 6786 017c 4D41 5853 		.string	"MAXSPEED      [B"
 6786      5045 4544 
 6786      2020 2020 
 6786      2020 5B42 
 6786      00
 6787               	.LC27:
 6788 018d 4D49 4E53 		.string	"MINSPEED      [B"
 6788      5045 4544 
 6788      2020 2020 
 6788      2020 5B42 
 6788      00
 6789               		.text
 6790               	.global	SettingSetPIDSpeedMenu
 6792               	SettingSetPIDSpeedMenu:
 6793               	.LFB78:
 6794               	.LM1081:
 6795 25fc 7F92      		push r7
 6796 25fe 8F92      		push r8
 6797 2600 9F92      		push r9
 6798 2602 AF92      		push r10
 6799 2604 BF92      		push r11
 6800 2606 CF92      		push r12
 6801 2608 DF92      		push r13
 6802 260a EF92      		push r14
 6803 260c FF92      		push r15
 6804 260e 0F93      		push r16
 6805 2610 1F93      		push r17
 6806 2612 CF93      		push r28
 6807 2614 DF93      		push r29
 6808               	/* prologue: function */
 6809               	/* frame size = 0 */
 6810               	/* stack size = 13 */
 6811               	.L__stack_usage = 13
 6812               	.LM1082:
 6813 2616 85E0      		ldi r24,lo8(5)
 6814 2618 8093 0000 		sts gScrollMax,r24
 6815               	.LBB501:
 6816               	.LM1083:
 6817 261c C6E0      		ldi r28,lo8(6)
 6818 261e D0E0      		ldi r29,hi8(6)
 6819               	.LM1084:
 6820 2620 42E0      		ldi r20,lo8(2)
 6821 2622 742E      		mov r7,r20
 6822               	.LM1085:
 6823 2624 00E7      		ldi r16,lo8(624)
 6824 2626 12E0      		ldi r17,hi8(624)
 6825               	.LBE501:
 6826               	.LBB502:
 6827               	.LM1086:
 6828 2628 31E7      		ldi r19,lo8(625)
 6829 262a E32E      		mov r14,r19
 6830 262c 32E0      		ldi r19,hi8(625)
 6831 262e F32E      		mov r15,r19
 6832               	.LBE502:
 6833               	.LBB503:
 6834               	.LM1087:
 6835 2630 2EE6      		ldi r18,lo8(622)
 6836 2632 C22E      		mov r12,r18
 6837 2634 22E0      		ldi r18,hi8(622)
 6838 2636 D22E      		mov r13,r18
 6839               	.LBE503:
 6840               	.LBB504:
 6841               	.LM1088:
 6842 2638 9DE6      		ldi r25,lo8(621)
 6843 263a A92E      		mov r10,r25
 6844 263c 92E0      		ldi r25,hi8(621)
 6845 263e B92E      		mov r11,r25
 6846               	.LBE504:
 6847               	.LBB505:
 6848               	.LM1089:
 6849 2640 8FE6      		ldi r24,lo8(623)
 6850 2642 882E      		mov r8,r24
 6851 2644 82E0      		ldi r24,hi8(623)
 6852 2646 982E      		mov r9,r24
 6853               	.LBE505:
 6854               	.LM1090:
 6855 2648 00C0      		rjmp .L444
 6856               	.L441:
 6857               	.LM1091:
 6858 264a 0E94 0000 		call ReStrainScroll
 6859               	.LM1092:
 6860 264e 8091 0000 		lds r24,gScrollNum
 6861 2652 6091 0000 		lds r22,gScrollMax
 6862 2656 0E94 0000 		call PrintScroll
 6863               	.LM1093:
 6864 265a 8091 0000 		lds r24,gScrollNum
 6865               	.LVL332:
 6866 265e 8330      		cpi r24,lo8(3)
 6867 2660 01F4      		brne .L421
 6868               	.LBB506:
 6869               	.LM1094:
 6870 2662 80E0      		ldi r24,lo8(0)
 6871 2664 60E0      		ldi r22,lo8(0)
 6872 2666 0E94 0000 		call LCDGotoXY
 6873               	.LM1095:
 6874 266a 80E0      		ldi r24,lo8(.LC23)
 6875 266c 90E0      		ldi r25,hi8(.LC23)
 6876 266e 60E1      		ldi r22,lo8(16)
 6877 2670 0E94 0000 		call LCDstring
 6878               	.LM1096:
 6879 2674 0E94 0000 		call ButtonRead
 6880               	.LVL333:
 6881               	.LM1097:
 6882 2678 8130      		cpi r24,lo8(1)
 6883 267a 01F4      		brne .L422
 6884               	.LM1098:
 6885 267c 9092 0000 		sts gState+1,r9
 6886 2680 8092 0000 		sts gState,r8
 6887 2684 00C0      		rjmp .L445
 6888               	.LVL334:
 6889               	.L422:
 6890               	.LM1099:
 6891 2686 8330      		cpi r24,lo8(3)
 6892 2688 01F0      		breq .+2
 6893 268a 00C0      		rjmp .L436
 6894               	.L446:
 6895               	.LM1100:
 6896 268c 8091 0000 		lds r24,gScrollNum
 6897 2690 8F5F      		subi r24,lo8(-(1))
 6898               	.L445:
 6899 2692 8093 0000 		sts gScrollNum,r24
 6900 2696 00C0      		rjmp .L444
 6901               	.L421:
 6902               	.LVL335:
 6903               	.LBE506:
 6904               	.LM1101:
 6905 2698 8130      		cpi r24,lo8(1)
 6906 269a 01F4      		brne .L426
 6907               	.LBB507:
 6908               	.LM1102:
 6909 269c 80E0      		ldi r24,lo8(0)
 6910 269e 60E0      		ldi r22,lo8(0)
 6911 26a0 0E94 0000 		call LCDGotoXY
 6912               	.LM1103:
 6913 26a4 80E0      		ldi r24,lo8(.LC24)
 6914 26a6 90E0      		ldi r25,hi8(.LC24)
 6915 26a8 60E1      		ldi r22,lo8(16)
 6916 26aa 0E94 0000 		call LCDstring
 6917               	.LM1104:
 6918 26ae 0E94 0000 		call ButtonRead
 6919               	.LVL336:
 6920               	.LM1105:
 6921 26b2 8130      		cpi r24,lo8(1)
 6922 26b4 01F4      		brne .L422
 6923               	.LM1106:
 6924 26b6 B092 0000 		sts gState+1,r11
 6925 26ba A092 0000 		sts gState,r10
 6926 26be 00C0      		rjmp .L445
 6927               	.LVL337:
 6928               	.L426:
 6929               	.LBE507:
 6930               	.LM1107:
 6931 26c0 8230      		cpi r24,lo8(2)
 6932 26c2 01F4      		brne .L430
 6933               	.LBB508:
 6934               	.LM1108:
 6935 26c4 80E0      		ldi r24,lo8(0)
 6936 26c6 60E0      		ldi r22,lo8(0)
 6937 26c8 0E94 0000 		call LCDGotoXY
 6938               	.LM1109:
 6939 26cc 80E0      		ldi r24,lo8(.LC25)
 6940 26ce 90E0      		ldi r25,hi8(.LC25)
 6941 26d0 60E1      		ldi r22,lo8(16)
 6942 26d2 0E94 0000 		call LCDstring
 6943               	.LM1110:
 6944 26d6 0E94 0000 		call ButtonRead
 6945               	.LVL338:
 6946               	.LM1111:
 6947 26da 8130      		cpi r24,lo8(1)
 6948 26dc 01F4      		brne .L422
 6949               	.LM1112:
 6950 26de D092 0000 		sts gState+1,r13
 6951 26e2 C092 0000 		sts gState,r12
 6952 26e6 00C0      		rjmp .L445
 6953               	.LVL339:
 6954               	.L430:
 6955               	.LBE508:
 6956               	.LM1113:
 6957 26e8 8530      		cpi r24,lo8(5)
 6958 26ea 01F4      		brne .L434
 6959               	.LBB509:
 6960               	.LM1114:
 6961 26ec 80E0      		ldi r24,lo8(0)
 6962 26ee 60E0      		ldi r22,lo8(0)
 6963 26f0 0E94 0000 		call LCDGotoXY
 6964               	.LM1115:
 6965 26f4 80E0      		ldi r24,lo8(.LC26)
 6966 26f6 90E0      		ldi r25,hi8(.LC26)
 6967 26f8 60E1      		ldi r22,lo8(16)
 6968 26fa 0E94 0000 		call LCDstring
 6969               	.LM1116:
 6970 26fe 0E94 0000 		call ButtonRead
 6971               	.LVL340:
 6972               	.LM1117:
 6973 2702 8130      		cpi r24,lo8(1)
 6974 2704 01F0      		breq .+2
 6975 2706 00C0      		rjmp .L422
 6976               	.LM1118:
 6977 2708 F092 0000 		sts gState+1,r15
 6978 270c E092 0000 		sts gState,r14
 6979 2710 00C0      		rjmp .L445
 6980               	.LVL341:
 6981               	.L436:
 6982               	.LM1119:
 6983 2712 8823      		tst r24
 6984 2714 01F0      		breq .L447
 6985               	.L437:
 6986               	.LM1120:
 6987 2716 8230      		cpi r24,lo8(2)
 6988 2718 01F4      		brne .L444
 6989               	.LM1121:
 6990 271a D093 0000 		sts gState+1,r29
 6991 271e C093 0000 		sts gState,r28
 6992               	.LVL342:
 6993 2722 00C0      		rjmp .L445
 6994               	.LVL343:
 6995               	.L434:
 6996               	.LBE509:
 6997               	.LM1122:
 6998 2724 8430      		cpi r24,lo8(4)
 6999 2726 01F4      		brne .L444
 7000               	.LBB510:
 7001               	.LM1123:
 7002 2728 80E0      		ldi r24,lo8(0)
 7003 272a 60E0      		ldi r22,lo8(0)
 7004 272c 0E94 0000 		call LCDGotoXY
 7005               	.LM1124:
 7006 2730 80E0      		ldi r24,lo8(.LC27)
 7007 2732 90E0      		ldi r25,hi8(.LC27)
 7008 2734 60E1      		ldi r22,lo8(16)
 7009 2736 0E94 0000 		call LCDstring
 7010               	.LM1125:
 7011 273a 0E94 0000 		call ButtonRead
 7012               	.LVL344:
 7013               	.LM1126:
 7014 273e 8130      		cpi r24,lo8(1)
 7015 2740 01F4      		brne .L438
 7016               	.LM1127:
 7017 2742 1093 0000 		sts gState+1,r17
 7018 2746 0093 0000 		sts gState,r16
 7019 274a 00C0      		rjmp .L445
 7020               	.L438:
 7021               	.LM1128:
 7022 274c 8330      		cpi r24,lo8(3)
 7023 274e 01F4      		brne .+2
 7024 2750 00C0      		rjmp .L446
 7025               	.L439:
 7026               	.LM1129:
 7027 2752 8823      		tst r24
 7028 2754 01F4      		brne .L440
 7029               	.LVL345:
 7030               	.L447:
 7031               	.LM1130:
 7032 2756 8091 0000 		lds r24,gScrollNum
 7033 275a 8150      		subi r24,lo8(-(-1))
 7034 275c 00C0      		rjmp .L445
 7035               	.LVL346:
 7036               	.L440:
 7037               	.LM1131:
 7038 275e 8230      		cpi r24,lo8(2)
 7039 2760 01F4      		brne .L444
 7040               	.LM1132:
 7041 2762 D093 0000 		sts gState+1,r29
 7042 2766 C093 0000 		sts gState,r28
 7043               	.LVL347:
 7044               	.LM1133:
 7045 276a 7092 0000 		sts gScrollNum,r7
 7046               	.LVL348:
 7047               	.L444:
 7048               	.LBE510:
 7049               	.LM1134:
 7050 276e 8091 0000 		lds r24,gState
 7051 2772 9091 0000 		lds r25,gState+1
 7052 2776 8E33      		cpi r24,62
 7053 2778 9105      		cpc r25,__zero_reg__
 7054 277a 01F4      		brne .+2
 7055 277c 00C0      		rjmp .L441
 7056               	/* epilogue start */
 7057               	.LM1135:
 7058 277e DF91      		pop r29
 7059 2780 CF91      		pop r28
 7060 2782 1F91      		pop r17
 7061 2784 0F91      		pop r16
 7062 2786 FF90      		pop r15
 7063 2788 EF90      		pop r14
 7064 278a DF90      		pop r13
 7065 278c CF90      		pop r12
 7066 278e BF90      		pop r11
 7067 2790 AF90      		pop r10
 7068 2792 9F90      		pop r9
 7069 2794 8F90      		pop r8
 7070 2796 7F90      		pop r7
 7071 2798 0895      		ret
 7072               	.LFE78:
 7074               		.data
 7075               	.LC28:
 7076 019e 4F4B 2020 		.string	"OK   {SPEED}  [B"
 7076      207B 5350 
 7076      4545 447D 
 7076      2020 5B42 
 7076      00
 7077               	.LC29:
 7078 01af 3C3C 2D20 		.string	"<<-    ###   +>>"
 7078      2020 2023 
 7078      2323 2020 
 7078      202B 3E3E 
 7078      00
 7079               		.text
 7080               	.global	SettingSetPIDSpeedSpeed
 7082               	SettingSetPIDSpeedSpeed:
 7083               	.LFB79:
 7084               	.LM1136:
 7085 279a 1F93      		push r17
 7086 279c CF93      		push r28
 7087 279e DF93      		push r29
 7088               	/* prologue: function */
 7089               	/* frame size = 0 */
 7090               	/* stack size = 3 */
 7091               	.L__stack_usage = 3
 7092               	.LM1137:
 7093 27a0 1091 0000 		lds r17,gDriveSpeed
 7094               	.LVL349:
 7095               	.LM1138:
 7096 27a4 CEE3      		ldi r28,lo8(62)
 7097 27a6 D0E0      		ldi r29,hi8(62)
 7098               	.LM1139:
 7099 27a8 00C0      		rjmp .L467
 7100               	.LVL350:
 7101               	.L464:
 7102               	.LM1140:
 7103 27aa 80E0      		ldi r24,lo8(0)
 7104 27ac 60E0      		ldi r22,lo8(0)
 7105 27ae 0E94 0000 		call LCDGotoXY
 7106               	.LM1141:
 7107 27b2 80E0      		ldi r24,lo8(.LC28)
 7108 27b4 90E0      		ldi r25,hi8(.LC28)
 7109 27b6 60E1      		ldi r22,lo8(16)
 7110 27b8 0E94 0000 		call LCDstring
 7111               	.LM1142:
 7112 27bc 80E0      		ldi r24,lo8(0)
 7113 27be 61E0      		ldi r22,lo8(1)
 7114 27c0 0E94 0000 		call LCDGotoXY
 7115               	.LM1143:
 7116 27c4 80E0      		ldi r24,lo8(.LC29)
 7117 27c6 90E0      		ldi r25,hi8(.LC29)
 7118 27c8 60E1      		ldi r22,lo8(16)
 7119 27ca 0E94 0000 		call LCDstring
 7120               	.LM1144:
 7121 27ce 812F      		mov r24,r17
 7122 27d0 90E0      		ldi r25,lo8(0)
 7123 27d2 67E0      		ldi r22,lo8(7)
 7124 27d4 41E0      		ldi r20,lo8(1)
 7125 27d6 23E0      		ldi r18,lo8(3)
 7126 27d8 0E94 0000 		call cetak_bil
 7127               	.LM1145:
 7128 27dc 0E94 0000 		call ButtonRead
 7129               	.LVL351:
 7130               	.LM1146:
 7131 27e0 8330      		cpi r24,lo8(3)
 7132 27e2 01F4      		brne .L460
 7133               	.LM1147:
 7134 27e4 1F5F      		subi r17,lo8(-(1))
 7135               	.LVL352:
 7136 27e6 00C0      		rjmp .L467
 7137               	.L460:
 7138               	.LM1148:
 7139 27e8 8823      		tst r24
 7140 27ea 01F4      		brne .L462
 7141               	.LM1149:
 7142 27ec 1150      		subi r17,lo8(-(-1))
 7143               	.LVL353:
 7144 27ee 00C0      		rjmp .L467
 7145               	.L462:
 7146               	.LM1150:
 7147 27f0 8230      		cpi r24,lo8(2)
 7148 27f2 01F0      		breq .L468
 7149               	.L463:
 7150               	.LM1151:
 7151 27f4 8130      		cpi r24,lo8(1)
 7152 27f6 01F4      		brne .L467
 7153               	.LM1152:
 7154 27f8 1093 0000 		sts gDriveSpeed,r17
 7155               	.LM1153:
 7156 27fc 8BE2      		ldi r24,lo8(555)
 7157 27fe 92E0      		ldi r25,hi8(555)
 7158               	.LVL354:
 7159 2800 612F      		mov r22,r17
 7160 2802 0E94 0000 		call __eeupd_byte_m32
 7161               	.L468:
 7162               	.LVL355:
 7163               	.LM1154:
 7164 2806 D093 0000 		sts gState+1,r29
 7165 280a C093 0000 		sts gState,r28
 7166               	.LVL356:
 7167               	.L467:
 7168               	.LM1155:
 7169 280e 2091 0000 		lds r18,gState
 7170 2812 3091 0000 		lds r19,gState+1
 7171 2816 82E0      		ldi r24,hi8(623)
 7172 2818 2F36      		cpi r18,lo8(623)
 7173 281a 3807      		cpc r19,r24
 7174 281c 01F0      		breq .L464
 7175               	/* epilogue start */
 7176               	.LM1156:
 7177 281e DF91      		pop r29
 7178 2820 CF91      		pop r28
 7179 2822 1F91      		pop r17
 7180               	.LVL357:
 7181 2824 0895      		ret
 7182               	.LFE79:
 7184               		.data
 7185               	.LC30:
 7186 01c0 4F4B 2020 		.string	"OK   { KP }   [B"
 7186      207B 204B 
 7186      5020 7D20 
 7186      2020 5B42 
 7186      00
 7187               	.LC31:
 7188 01d1 3C3C 2D20 		.string	"<<-    ##    +>>"
 7188      2020 2023 
 7188      2320 2020 
 7188      202B 3E3E 
 7188      00
 7189               		.text
 7190               	.global	SettingSetPIDSpeedKP
 7192               	SettingSetPIDSpeedKP:
 7193               	.LFB80:
 7194               	.LM1157:
 7195 2826 1F93      		push r17
 7196 2828 CF93      		push r28
 7197 282a DF93      		push r29
 7198               	/* prologue: function */
 7199               	/* frame size = 0 */
 7200               	/* stack size = 3 */
 7201               	.L__stack_usage = 3
 7202               	.LM1158:
 7203 282c 1091 0000 		lds r17,gDriveKP
 7204               	.LVL358:
 7205               	.LM1159:
 7206 2830 CEE3      		ldi r28,lo8(62)
 7207 2832 D0E0      		ldi r29,hi8(62)
 7208               	.LM1160:
 7209 2834 00C0      		rjmp .L478
 7210               	.LVL359:
 7211               	.L475:
 7212               	.LM1161:
 7213 2836 80E0      		ldi r24,lo8(0)
 7214 2838 60E0      		ldi r22,lo8(0)
 7215 283a 0E94 0000 		call LCDGotoXY
 7216               	.LM1162:
 7217 283e 80E0      		ldi r24,lo8(.LC30)
 7218 2840 90E0      		ldi r25,hi8(.LC30)
 7219 2842 60E1      		ldi r22,lo8(16)
 7220 2844 0E94 0000 		call LCDstring
 7221               	.LM1163:
 7222 2848 80E0      		ldi r24,lo8(0)
 7223 284a 61E0      		ldi r22,lo8(1)
 7224 284c 0E94 0000 		call LCDGotoXY
 7225               	.LM1164:
 7226 2850 80E0      		ldi r24,lo8(.LC31)
 7227 2852 90E0      		ldi r25,hi8(.LC31)
 7228 2854 60E1      		ldi r22,lo8(16)
 7229 2856 0E94 0000 		call LCDstring
 7230               	.LM1165:
 7231 285a 812F      		mov r24,r17
 7232 285c 90E0      		ldi r25,lo8(0)
 7233 285e 67E0      		ldi r22,lo8(7)
 7234 2860 41E0      		ldi r20,lo8(1)
 7235 2862 22E0      		ldi r18,lo8(2)
 7236 2864 0E94 0000 		call cetak_bil
 7237               	.LM1166:
 7238 2868 0E94 0000 		call ButtonRead
 7239               	.LVL360:
 7240               	.LM1167:
 7241 286c 8330      		cpi r24,lo8(3)
 7242 286e 01F4      		brne .L471
 7243               	.LM1168:
 7244 2870 1F5F      		subi r17,lo8(-(1))
 7245               	.LVL361:
 7246 2872 00C0      		rjmp .L478
 7247               	.L471:
 7248               	.LM1169:
 7249 2874 8823      		tst r24
 7250 2876 01F4      		brne .L473
 7251               	.LM1170:
 7252 2878 1150      		subi r17,lo8(-(-1))
 7253               	.LVL362:
 7254 287a 00C0      		rjmp .L478
 7255               	.L473:
 7256               	.LM1171:
 7257 287c 8230      		cpi r24,lo8(2)
 7258 287e 01F0      		breq .L479
 7259               	.L474:
 7260               	.LM1172:
 7261 2880 8130      		cpi r24,lo8(1)
 7262 2882 01F4      		brne .L478
 7263               	.LM1173:
 7264 2884 1093 0000 		sts gDriveKP,r17
 7265 2888 1092 0000 		sts gDriveKP+1,__zero_reg__
 7266               	.LM1174:
 7267 288c 8CE2      		ldi r24,lo8(556)
 7268 288e 92E0      		ldi r25,hi8(556)
 7269               	.LVL363:
 7270 2890 612F      		mov r22,r17
 7271 2892 0E94 0000 		call __eeupd_byte_m32
 7272               	.L479:
 7273               	.LVL364:
 7274               	.LM1175:
 7275 2896 D093 0000 		sts gState+1,r29
 7276 289a C093 0000 		sts gState,r28
 7277               	.LVL365:
 7278               	.L478:
 7279               	.LM1176:
 7280 289e 2091 0000 		lds r18,gState
 7281 28a2 3091 0000 		lds r19,gState+1
 7282 28a6 82E0      		ldi r24,hi8(621)
 7283 28a8 2D36      		cpi r18,lo8(621)
 7284 28aa 3807      		cpc r19,r24
 7285 28ac 01F0      		breq .L475
 7286               	/* epilogue start */
 7287               	.LM1177:
 7288 28ae DF91      		pop r29
 7289 28b0 CF91      		pop r28
 7290 28b2 1F91      		pop r17
 7291               	.LVL366:
 7292 28b4 0895      		ret
 7293               	.LFE80:
 7295               		.data
 7296               	.LC32:
 7297 01e2 4F4B 2020 		.string	"OK   { KD }   [B"
 7297      207B 204B 
 7297      4420 7D20 
 7297      2020 5B42 
 7297      00
 7298               		.text
 7299               	.global	SettingSetPIDSpeedKD
 7301               	SettingSetPIDSpeedKD:
 7302               	.LFB81:
 7303               	.LM1178:
 7304 28b6 1F93      		push r17
 7305 28b8 CF93      		push r28
 7306 28ba DF93      		push r29
 7307               	/* prologue: function */
 7308               	/* frame size = 0 */
 7309               	/* stack size = 3 */
 7310               	.L__stack_usage = 3
 7311               	.LM1179:
 7312 28bc 1091 0000 		lds r17,gDriveKD
 7313               	.LVL367:
 7314               	.LM1180:
 7315 28c0 CEE3      		ldi r28,lo8(62)
 7316 28c2 D0E0      		ldi r29,hi8(62)
 7317               	.LM1181:
 7318 28c4 00C0      		rjmp .L489
 7319               	.LVL368:
 7320               	.L486:
 7321               	.LM1182:
 7322 28c6 80E0      		ldi r24,lo8(0)
 7323 28c8 60E0      		ldi r22,lo8(0)
 7324 28ca 0E94 0000 		call LCDGotoXY
 7325               	.LM1183:
 7326 28ce 80E0      		ldi r24,lo8(.LC32)
 7327 28d0 90E0      		ldi r25,hi8(.LC32)
 7328 28d2 60E1      		ldi r22,lo8(16)
 7329 28d4 0E94 0000 		call LCDstring
 7330               	.LM1184:
 7331 28d8 80E0      		ldi r24,lo8(0)
 7332 28da 61E0      		ldi r22,lo8(1)
 7333 28dc 0E94 0000 		call LCDGotoXY
 7334               	.LM1185:
 7335 28e0 80E0      		ldi r24,lo8(.LC31)
 7336 28e2 90E0      		ldi r25,hi8(.LC31)
 7337 28e4 60E1      		ldi r22,lo8(16)
 7338 28e6 0E94 0000 		call LCDstring
 7339               	.LM1186:
 7340 28ea 812F      		mov r24,r17
 7341 28ec 90E0      		ldi r25,lo8(0)
 7342 28ee 67E0      		ldi r22,lo8(7)
 7343 28f0 41E0      		ldi r20,lo8(1)
 7344 28f2 22E0      		ldi r18,lo8(2)
 7345 28f4 0E94 0000 		call cetak_bil
 7346               	.LM1187:
 7347 28f8 0E94 0000 		call ButtonRead
 7348               	.LVL369:
 7349               	.LM1188:
 7350 28fc 8330      		cpi r24,lo8(3)
 7351 28fe 01F4      		brne .L482
 7352               	.LM1189:
 7353 2900 1F5F      		subi r17,lo8(-(1))
 7354               	.LVL370:
 7355 2902 00C0      		rjmp .L489
 7356               	.L482:
 7357               	.LM1190:
 7358 2904 8823      		tst r24
 7359 2906 01F4      		brne .L484
 7360               	.LM1191:
 7361 2908 1150      		subi r17,lo8(-(-1))
 7362               	.LVL371:
 7363 290a 00C0      		rjmp .L489
 7364               	.L484:
 7365               	.LM1192:
 7366 290c 8230      		cpi r24,lo8(2)
 7367 290e 01F0      		breq .L490
 7368               	.L485:
 7369               	.LM1193:
 7370 2910 8130      		cpi r24,lo8(1)
 7371 2912 01F4      		brne .L489
 7372               	.LM1194:
 7373 2914 1093 0000 		sts gDriveKD,r17
 7374 2918 1092 0000 		sts gDriveKD+1,__zero_reg__
 7375               	.LM1195:
 7376 291c 8DE2      		ldi r24,lo8(557)
 7377 291e 92E0      		ldi r25,hi8(557)
 7378               	.LVL372:
 7379 2920 612F      		mov r22,r17
 7380 2922 0E94 0000 		call __eeupd_byte_m32
 7381               	.L490:
 7382               	.LVL373:
 7383               	.LM1196:
 7384 2926 D093 0000 		sts gState+1,r29
 7385 292a C093 0000 		sts gState,r28
 7386               	.LVL374:
 7387               	.L489:
 7388               	.LM1197:
 7389 292e 2091 0000 		lds r18,gState
 7390 2932 3091 0000 		lds r19,gState+1
 7391 2936 82E0      		ldi r24,hi8(622)
 7392 2938 2E36      		cpi r18,lo8(622)
 7393 293a 3807      		cpc r19,r24
 7394 293c 01F0      		breq .L486
 7395               	/* epilogue start */
 7396               	.LM1198:
 7397 293e DF91      		pop r29
 7398 2940 CF91      		pop r28
 7399 2942 1F91      		pop r17
 7400               	.LVL375:
 7401 2944 0895      		ret
 7402               	.LFE81:
 7404               		.data
 7405               	.LC33:
 7406 01f3 4445 4255 		.string	"DEBUG-SENSOR  2B"
 7406      472D 5345 
 7406      4E53 4F52 
 7406      2020 3242 
 7406      00
 7407               	.LC34:
 7408 0204 4445 4255 		.string	"DEBUG-ADC     2B"
 7408      472D 4144 
 7408      4320 2020 
 7408      2020 3242 
 7408      00
 7409               	.LC35:
 7410 0215 4445 4255 		.string	"DEBUG-DRIVER  2B"
 7410      472D 4452 
 7410      4956 4552 
 7410      2020 3242 
 7410      00
 7411               		.text
 7412               	.global	SettingDebugMenu
 7414               	SettingDebugMenu:
 7415               	.LFB82:
 7416               	.LM1199:
 7417 2946 8F92      		push r8
 7418 2948 9F92      		push r9
 7419 294a BF92      		push r11
 7420 294c CF92      		push r12
 7421 294e DF92      		push r13
 7422 2950 EF92      		push r14
 7423 2952 FF92      		push r15
 7424 2954 0F93      		push r16
 7425 2956 1F93      		push r17
 7426 2958 DF93      		push r29
 7427 295a CF93      		push r28
 7428 295c 0F92      		push __tmp_reg__
 7429 295e CDB7      		in r28,__SP_L__
 7430 2960 DEB7      		in r29,__SP_H__
 7431               	/* prologue: function */
 7432               	/* frame size = 1 */
 7433               	/* stack size = 12 */
 7434               	.L__stack_usage = 12
 7435               	.LM1200:
 7436 2962 83E0      		ldi r24,lo8(3)
 7437 2964 8093 0000 		sts gScrollMax,r24
 7438               	.LBB511:
 7439               	.LM1201:
 7440 2968 76E0      		ldi r23,lo8(6)
 7441 296a 872E      		mov r8,r23
 7442 296c 912C      		mov r9,__zero_reg__
 7443               	.LM1202:
 7444 296e BB24      		clr r11
 7445 2970 B394      		inc r11
 7446               	.LM1203:
 7447 2972 05E6      		ldi r16,lo8(613)
 7448 2974 12E0      		ldi r17,hi8(613)
 7449               	.LBE511:
 7450               	.LBB512:
 7451               	.LM1204:
 7452 2976 64E6      		ldi r22,lo8(612)
 7453 2978 E62E      		mov r14,r22
 7454 297a 62E0      		ldi r22,hi8(612)
 7455 297c F62E      		mov r15,r22
 7456               	.LBE512:
 7457               	.LBB513:
 7458               	.LM1205:
 7459 297e 53E6      		ldi r21,lo8(611)
 7460 2980 C52E      		mov r12,r21
 7461 2982 52E0      		ldi r21,hi8(611)
 7462 2984 D52E      		mov r13,r21
 7463               	.LBE513:
 7464               	.LM1206:
 7465 2986 00C0      		rjmp .L508
 7466               	.L505:
 7467               	.LM1207:
 7468 2988 0E94 0000 		call ReStrainScroll
 7469               	.LM1208:
 7470 298c 8091 0000 		lds r24,gScrollNum
 7471 2990 6091 0000 		lds r22,gScrollMax
 7472 2994 0E94 0000 		call PrintScroll
 7473               	.LM1209:
 7474 2998 2091 0000 		lds r18,gScrollNum
 7475               	.LVL376:
 7476 299c 2130      		cpi r18,lo8(1)
 7477 299e 01F4      		brne .L493
 7478               	.LBB514:
 7479               	.LM1210:
 7480 29a0 80E0      		ldi r24,lo8(0)
 7481 29a2 60E0      		ldi r22,lo8(0)
 7482 29a4 2983      		std Y+1,r18
 7483 29a6 0E94 0000 		call LCDGotoXY
 7484               	.LM1211:
 7485 29aa 80E0      		ldi r24,lo8(.LC33)
 7486 29ac 90E0      		ldi r25,hi8(.LC33)
 7487 29ae 60E1      		ldi r22,lo8(16)
 7488 29b0 0E94 0000 		call LCDstring
 7489               	.LM1212:
 7490 29b4 0E94 0000 		call ButtonRead
 7491               	.LVL377:
 7492               	.LM1213:
 7493 29b8 2981      		ldd r18,Y+1
 7494 29ba 8130      		cpi r24,lo8(1)
 7495 29bc 01F4      		brne .L494
 7496               	.LM1214:
 7497 29be D092 0000 		sts gState+1,r13
 7498 29c2 C092 0000 		sts gState,r12
 7499 29c6 00C0      		rjmp .L509
 7500               	.L494:
 7501               	.LM1215:
 7502 29c8 8330      		cpi r24,lo8(3)
 7503 29ca 01F4      		brne .L496
 7504               	.LVL378:
 7505               	.L511:
 7506               	.LM1216:
 7507 29cc 8091 0000 		lds r24,gScrollNum
 7508 29d0 8F5F      		subi r24,lo8(-(1))
 7509               	.L509:
 7510 29d2 8093 0000 		sts gScrollNum,r24
 7511 29d6 00C0      		rjmp .L508
 7512               	.LVL379:
 7513               	.L496:
 7514               	.LM1217:
 7515 29d8 8823      		tst r24
 7516 29da 01F0      		breq .L512
 7517               	.L497:
 7518               	.LM1218:
 7519 29dc 8230      		cpi r24,lo8(2)
 7520 29de 01F0      		breq .+2
 7521 29e0 00C0      		rjmp .L508
 7522               	.LM1219:
 7523 29e2 9092 0000 		sts gState+1,r9
 7524 29e6 8092 0000 		sts gState,r8
 7525               	.LVL380:
 7526               	.LM1220:
 7527 29ea 2093 0000 		sts gScrollNum,r18
 7528 29ee 00C0      		rjmp .L508
 7529               	.LVL381:
 7530               	.L493:
 7531               	.LBE514:
 7532               	.LM1221:
 7533 29f0 2230      		cpi r18,lo8(2)
 7534 29f2 01F4      		brne .L498
 7535               	.LBB515:
 7536               	.LM1222:
 7537 29f4 80E0      		ldi r24,lo8(0)
 7538 29f6 60E0      		ldi r22,lo8(0)
 7539 29f8 0E94 0000 		call LCDGotoXY
 7540               	.LM1223:
 7541 29fc 80E0      		ldi r24,lo8(.LC34)
 7542 29fe 90E0      		ldi r25,hi8(.LC34)
 7543 2a00 60E1      		ldi r22,lo8(16)
 7544 2a02 0E94 0000 		call LCDstring
 7545               	.LM1224:
 7546 2a06 0E94 0000 		call ButtonRead
 7547               	.LVL382:
 7548               	.LM1225:
 7549 2a0a 8130      		cpi r24,lo8(1)
 7550 2a0c 01F4      		brne .L502
 7551               	.LM1226:
 7552 2a0e F092 0000 		sts gState+1,r15
 7553 2a12 E092 0000 		sts gState,r14
 7554 2a16 00C0      		rjmp .L509
 7555               	.LVL383:
 7556               	.L498:
 7557               	.LBE515:
 7558               	.LM1227:
 7559 2a18 2330      		cpi r18,lo8(3)
 7560 2a1a 01F4      		brne .L508
 7561               	.LBB516:
 7562               	.LM1228:
 7563 2a1c 80E0      		ldi r24,lo8(0)
 7564 2a1e 60E0      		ldi r22,lo8(0)
 7565 2a20 0E94 0000 		call LCDGotoXY
 7566               	.LM1229:
 7567 2a24 80E0      		ldi r24,lo8(.LC35)
 7568 2a26 90E0      		ldi r25,hi8(.LC35)
 7569 2a28 60E1      		ldi r22,lo8(16)
 7570 2a2a 0E94 0000 		call LCDstring
 7571               	.LM1230:
 7572 2a2e 0E94 0000 		call ButtonRead
 7573               	.LVL384:
 7574               	.LM1231:
 7575 2a32 8130      		cpi r24,lo8(1)
 7576 2a34 01F4      		brne .L502
 7577               	.LM1232:
 7578 2a36 1093 0000 		sts gState+1,r17
 7579 2a3a 0093 0000 		sts gState,r16
 7580 2a3e 00C0      		rjmp .L509
 7581               	.LVL385:
 7582               	.L502:
 7583               	.LM1233:
 7584 2a40 8330      		cpi r24,lo8(3)
 7585 2a42 01F0      		breq .L511
 7586               	.L503:
 7587               	.LM1234:
 7588 2a44 8823      		tst r24
 7589 2a46 01F4      		brne .L504
 7590               	.LVL386:
 7591               	.L512:
 7592               	.LM1235:
 7593 2a48 8091 0000 		lds r24,gScrollNum
 7594 2a4c 8150      		subi r24,lo8(-(-1))
 7595 2a4e 00C0      		rjmp .L509
 7596               	.LVL387:
 7597               	.L504:
 7598               	.LM1236:
 7599 2a50 8230      		cpi r24,lo8(2)
 7600 2a52 01F4      		brne .L508
 7601               	.LM1237:
 7602 2a54 9092 0000 		sts gState+1,r9
 7603 2a58 8092 0000 		sts gState,r8
 7604               	.LVL388:
 7605               	.LM1238:
 7606 2a5c B092 0000 		sts gScrollNum,r11
 7607               	.LVL389:
 7608               	.L508:
 7609               	.LBE516:
 7610               	.LM1239:
 7611 2a60 8091 0000 		lds r24,gState
 7612 2a64 9091 0000 		lds r25,gState+1
 7613 2a68 8D33      		cpi r24,61
 7614 2a6a 9105      		cpc r25,__zero_reg__
 7615 2a6c 01F4      		brne .+2
 7616 2a6e 00C0      		rjmp .L505
 7617               	/* epilogue start */
 7618               	.LM1240:
 7619 2a70 0F90      		pop __tmp_reg__
 7620 2a72 CF91      		pop r28
 7621 2a74 DF91      		pop r29
 7622 2a76 1F91      		pop r17
 7623 2a78 0F91      		pop r16
 7624 2a7a FF90      		pop r15
 7625 2a7c EF90      		pop r14
 7626 2a7e DF90      		pop r13
 7627 2a80 CF90      		pop r12
 7628 2a82 BF90      		pop r11
 7629 2a84 9F90      		pop r9
 7630 2a86 8F90      		pop r8
 7631 2a88 0895      		ret
 7632               	.LFE82:
 7634               	.global	SettingDebugSensor
 7636               	SettingDebugSensor:
 7637               	.LFB83:
 7638               	.LM1241:
 7639 2a8a EF92      		push r14
 7640 2a8c FF92      		push r15
 7641 2a8e 0F93      		push r16
 7642 2a90 1F93      		push r17
 7643               	/* prologue: function */
 7644               	/* frame size = 0 */
 7645               	/* stack size = 4 */
 7646               	.L__stack_usage = 4
 7647               	.LM1242:
 7648 2a92 0E94 0000 		call LCDclr
 7649               	.LVL390:
 7650               	.LM1243:
 7651 2a96 E7E0      		ldi r30,lo8(7)
 7652 2a98 EE2E      		mov r14,r30
 7653               	.LM1244:
 7654 2a9a 00C0      		rjmp .L517
 7655               	.LVL391:
 7656               	.L523:
 7657               	.LM1245:
 7658 2a9c 0E94 0000 		call SensorReadDigital
 7659               	.LVL392:
 7660 2aa0 0FE0      		ldi r16,lo8(15)
 7661 2aa2 17E0      		ldi r17,lo8(7)
 7662               	.LVL393:
 7663               	.L522:
 7664 2aa4 FE2C      		mov r15,r14
 7665 2aa6 F11A      		sub r15,r17
 7666               	.LM1246:
 7667 2aa8 8091 0000 		lds r24,gSensH
 7668 2aac 6F2D      		mov r22,r15
 7669 2aae 0E94 0000 		call isset
 7670 2ab2 8823      		tst r24
 7671 2ab4 01F0      		breq .L518
 7672               	.LM1247:
 7673 2ab6 81E0      		ldi r24,lo8(1)
 7674 2ab8 90E0      		ldi r25,hi8(1)
 7675 2aba 00C0      		rjmp .L525
 7676               	.L518:
 7677               	.LM1248:
 7678 2abc 80E0      		ldi r24,lo8(0)
 7679 2abe 90E0      		ldi r25,hi8(0)
 7680               	.L525:
 7681 2ac0 612F      		mov r22,r17
 7682 2ac2 41E0      		ldi r20,lo8(1)
 7683 2ac4 21E0      		ldi r18,lo8(1)
 7684 2ac6 0E94 0000 		call cetak_bil
 7685               	.LM1249:
 7686 2aca 8091 0000 		lds r24,gSensL
 7687 2ace 6F2D      		mov r22,r15
 7688 2ad0 0E94 0000 		call isset
 7689 2ad4 8823      		tst r24
 7690 2ad6 01F0      		breq .L520
 7691               	.LM1250:
 7692 2ad8 81E0      		ldi r24,lo8(1)
 7693 2ada 90E0      		ldi r25,hi8(1)
 7694 2adc 00C0      		rjmp .L526
 7695               	.L520:
 7696               	.LM1251:
 7697 2ade 80E0      		ldi r24,lo8(0)
 7698 2ae0 90E0      		ldi r25,hi8(0)
 7699               	.L526:
 7700 2ae2 602F      		mov r22,r16
 7701 2ae4 41E0      		ldi r20,lo8(1)
 7702 2ae6 21E0      		ldi r18,lo8(1)
 7703 2ae8 0E94 0000 		call cetak_bil
 7704 2aec 1150      		subi r17,lo8(-(-1))
 7705 2aee 0150      		subi r16,lo8(-(-1))
 7706               	.LM1252:
 7707 2af0 1F3F      		cpi r17,lo8(-1)
 7708 2af2 01F4      		brne .L522
 7709               	.LM1253:
 7710 2af4 8091 0000 		lds r24,gSensA
 7711 2af8 60E0      		ldi r22,lo8(0)
 7712 2afa 0E94 0000 		call isset
 7713 2afe 90E0      		ldi r25,lo8(0)
 7714 2b00 67E0      		ldi r22,lo8(7)
 7715 2b02 40E0      		ldi r20,lo8(0)
 7716 2b04 21E0      		ldi r18,lo8(1)
 7717 2b06 0E94 0000 		call cetak_bil
 7718               	.LM1254:
 7719 2b0a 8091 0000 		lds r24,gSensA
 7720 2b0e 62E0      		ldi r22,lo8(2)
 7721 2b10 0E94 0000 		call isset
 7722 2b14 90E0      		ldi r25,lo8(0)
 7723 2b16 68E0      		ldi r22,lo8(8)
 7724 2b18 40E0      		ldi r20,lo8(0)
 7725 2b1a 21E0      		ldi r18,lo8(1)
 7726 2b1c 0E94 0000 		call cetak_bil
 7727               	.LM1255:
 7728 2b20 8091 0000 		lds r24,gSensA
 7729 2b24 61E0      		ldi r22,lo8(1)
 7730 2b26 0E94 0000 		call isset
 7731 2b2a 90E0      		ldi r25,lo8(0)
 7732 2b2c 69E0      		ldi r22,lo8(9)
 7733 2b2e 40E0      		ldi r20,lo8(0)
 7734 2b30 21E0      		ldi r18,lo8(1)
 7735 2b32 0E94 0000 		call cetak_bil
 7736               	.L517:
 7737               	.LM1256:
 7738 2b36 0E94 0000 		call ButtonBack
 7739 2b3a 8823      		tst r24
 7740 2b3c 01F4      		brne .+2
 7741 2b3e 00C0      		rjmp .L523
 7742               	.LVL394:
 7743               	.LM1257:
 7744 2b40 81E0      		ldi r24,lo8(1)
 7745 2b42 8093 0000 		sts gScrollNum,r24
 7746               	.LM1258:
 7747 2b46 8DE3      		ldi r24,lo8(61)
 7748 2b48 90E0      		ldi r25,hi8(61)
 7749 2b4a 9093 0000 		sts gState+1,r25
 7750 2b4e 8093 0000 		sts gState,r24
 7751               	/* epilogue start */
 7752               	.LM1259:
 7753 2b52 1F91      		pop r17
 7754 2b54 0F91      		pop r16
 7755 2b56 FF90      		pop r15
 7756 2b58 EF90      		pop r14
 7757 2b5a 0895      		ret
 7758               	.LFE83:
 7760               	.global	main
 7762               	main:
 7763               	.LFB15:
 7764               	.LM1260:
 7765               	/* prologue: function */
 7766               	/* frame size = 0 */
 7767               	/* stack size = 0 */
 7768               	.L__stack_usage = 0
 7769               	.LM1261:
 7770 2b5c 0E94 0000 		call Init
 7771               	.LM1262:
 7772 2b60 1092 0000 		sts gState+1,__zero_reg__
 7773 2b64 1092 0000 		sts gState,__zero_reg__
 7774               	.L548:
 7775               	.LM1263:
 7776 2b68 8091 0000 		lds r24,gState
 7777 2b6c 9091 0000 		lds r25,gState+1
 7778 2b70 8530      		cpi r24,5
 7779 2b72 9105      		cpc r25,__zero_reg__
 7780 2b74 01F4      		brne .L528
 7781               	.LBB517:
 7782               	.LBB518:
 7783               	.LM1264:
 7784 2b76 0E94 0000 		call SensorCalibrate
 7785               	.L528:
 7786               	.LBE518:
 7787               	.LBE517:
 7788               	.LM1265:
 7789 2b7a 8091 0000 		lds r24,gState
 7790 2b7e 9091 0000 		lds r25,gState+1
 7791 2b82 0097      		sbiw r24,0
 7792 2b84 01F4      		brne .L529
 7793               	.LM1266:
 7794 2b86 0E94 0000 		call Menu
 7795               	.L529:
 7796               	.LM1267:
 7797 2b8a 8091 0000 		lds r24,gState
 7798 2b8e 9091 0000 		lds r25,gState+1
 7799 2b92 8730      		cpi r24,7
 7800 2b94 9105      		cpc r25,__zero_reg__
 7801 2b96 01F4      		brne .L530
 7802               	.LM1268:
 7803 2b98 0E94 0000 		call Run
 7804               	.L530:
 7805               	.LM1269:
 7806 2b9c 8091 0000 		lds r24,gState
 7807 2ba0 9091 0000 		lds r25,gState+1
 7808 2ba4 8930      		cpi r24,9
 7809 2ba6 9105      		cpc r25,__zero_reg__
 7810 2ba8 01F4      		brne .L531
 7811               	.LM1270:
 7812 2baa 80E0      		ldi r24,lo8(0)
 7813 2bac 0E94 0000 		call RunMapping
 7814               	.L531:
 7815               	.LM1271:
 7816 2bb0 8091 0000 		lds r24,gState
 7817 2bb4 9091 0000 		lds r25,gState+1
 7818 2bb8 8A30      		cpi r24,10
 7819 2bba 9105      		cpc r25,__zero_reg__
 7820 2bbc 01F4      		brne .L532
 7821               	.LM1272:
 7822 2bbe 81E0      		ldi r24,lo8(1)
 7823 2bc0 0E94 0000 		call RunMapping
 7824               	.L532:
 7825               	.LM1273:
 7826 2bc4 8091 0000 		lds r24,gState
 7827 2bc8 9091 0000 		lds r25,gState+1
 7828 2bcc 8230      		cpi r24,2
 7829 2bce 9105      		cpc r25,__zero_reg__
 7830 2bd0 01F4      		brne .L533
 7831               	.LM1274:
 7832 2bd2 82E0      		ldi r24,lo8(2)
 7833 2bd4 0E94 0000 		call RunMapping
 7834               	.L533:
 7835               	.LM1275:
 7836 2bd8 8091 0000 		lds r24,gState
 7837 2bdc 9091 0000 		lds r25,gState+1
 7838 2be0 8330      		cpi r24,3
 7839 2be2 9105      		cpc r25,__zero_reg__
 7840 2be4 01F4      		brne .L534
 7841               	.LM1276:
 7842 2be6 83E0      		ldi r24,lo8(3)
 7843 2be8 0E94 0000 		call RunMapping
 7844               	.L534:
 7845               	.LM1277:
 7846 2bec 8091 0000 		lds r24,gState
 7847 2bf0 9091 0000 		lds r25,gState+1
 7848 2bf4 8430      		cpi r24,4
 7849 2bf6 9105      		cpc r25,__zero_reg__
 7850 2bf8 01F4      		brne .L535
 7851               	.LM1278:
 7852 2bfa 84E0      		ldi r24,lo8(4)
 7853 2bfc 0E94 0000 		call RunMapping
 7854               	.L535:
 7855               	.LM1279:
 7856 2c00 8091 0000 		lds r24,gState
 7857 2c04 9091 0000 		lds r25,gState+1
 7858 2c08 8130      		cpi r24,1
 7859 2c0a 9105      		cpc r25,__zero_reg__
 7860 2c0c 01F4      		brne .L536
 7861               	.LM1280:
 7862 2c0e 0E94 0000 		call RunLearn
 7863               	.L536:
 7864               	.LM1281:
 7865 2c12 8091 0000 		lds r24,gState
 7866 2c16 9091 0000 		lds r25,gState+1
 7867 2c1a 8830      		cpi r24,8
 7868 2c1c 9105      		cpc r25,__zero_reg__
 7869 2c1e 01F4      		brne .L537
 7870               	.LM1282:
 7871 2c20 0E94 0000 		call RunTestCounter
 7872               	.L537:
 7873               	.LM1283:
 7874 2c24 8091 0000 		lds r24,gState
 7875 2c28 9091 0000 		lds r25,gState+1
 7876 2c2c 8630      		cpi r24,6
 7877 2c2e 9105      		cpc r25,__zero_reg__
 7878 2c30 01F4      		brne .L538
 7879               	.LM1284:
 7880 2c32 0E94 0000 		call SettingMenu
 7881               	.L538:
 7882               	.LM1285:
 7883 2c36 8091 0000 		lds r24,gState
 7884 2c3a 9091 0000 		lds r25,gState+1
 7885 2c3e 8E33      		cpi r24,62
 7886 2c40 9105      		cpc r25,__zero_reg__
 7887 2c42 01F4      		brne .L539
 7888               	.LM1286:
 7889 2c44 0E94 0000 		call SettingSetPIDSpeedMenu
 7890               	.L539:
 7891               	.LM1287:
 7892 2c48 8091 0000 		lds r24,gState
 7893 2c4c 9091 0000 		lds r25,gState+1
 7894 2c50 22E0      		ldi r18,hi8(622)
 7895 2c52 8E36      		cpi r24,lo8(622)
 7896 2c54 9207      		cpc r25,r18
 7897 2c56 01F4      		brne .L540
 7898               	.LM1288:
 7899 2c58 0E94 0000 		call SettingSetPIDSpeedKD
 7900               	.L540:
 7901               	.LM1289:
 7902 2c5c 8091 0000 		lds r24,gState
 7903 2c60 9091 0000 		lds r25,gState+1
 7904 2c64 22E0      		ldi r18,hi8(621)
 7905 2c66 8D36      		cpi r24,lo8(621)
 7906 2c68 9207      		cpc r25,r18
 7907 2c6a 01F4      		brne .L541
 7908               	.LM1290:
 7909 2c6c 0E94 0000 		call SettingSetPIDSpeedKP
 7910               	.L541:
 7911               	.LM1291:
 7912 2c70 8091 0000 		lds r24,gState
 7913 2c74 9091 0000 		lds r25,gState+1
 7914 2c78 22E0      		ldi r18,hi8(623)
 7915 2c7a 8F36      		cpi r24,lo8(623)
 7916 2c7c 9207      		cpc r25,r18
 7917 2c7e 01F4      		brne .L542
 7918               	.LM1292:
 7919 2c80 0E94 0000 		call SettingSetPIDSpeedSpeed
 7920               	.L542:
 7921               	.LM1293:
 7922 2c84 8091 0000 		lds r24,gState
 7923 2c88 9091 0000 		lds r25,gState+1
 7924 2c8c 8D33      		cpi r24,61
 7925 2c8e 9105      		cpc r25,__zero_reg__
 7926 2c90 01F4      		brne .L543
 7927               	.LM1294:
 7928 2c92 0E94 0000 		call SettingDebugMenu
 7929               	.L543:
 7930               	.LM1295:
 7931 2c96 8091 0000 		lds r24,gState
 7932 2c9a 9091 0000 		lds r25,gState+1
 7933 2c9e 22E0      		ldi r18,hi8(611)
 7934 2ca0 8336      		cpi r24,lo8(611)
 7935 2ca2 9207      		cpc r25,r18
 7936 2ca4 01F0      		breq .+2
 7937 2ca6 00C0      		rjmp .L548
 7938               	.LM1296:
 7939 2ca8 0E94 0000 		call SettingDebugSensor
 7940 2cac 00C0      		rjmp .L548
 7941               	.LFE15:
 7943               	.global	gMazeMapNum
 7944               	.global	gMazeMapNum
 7945               		.section .bss
 7948               	gMazeMapNum:
 7949 0000 00        		.skip 1,0
 7950               	.global	gMazeMapTot
 7951               		.data
 7954               	gMazeMapTot:
 7955 0226 0A        		.byte	10
 7956               	.global	counter
 7957               	.global	counter
 7958               		.section .bss
 7961               	counter:
 7962 0001 0000 0000 		.skip 4,0
 7963               	.global	countermax
 7964               		.data
 7967               	countermax:
 7968 0227 1E        		.byte	30
 7969 0228 00        		.byte	0
 7970 0229 00        		.byte	0
 7971 022a 00        		.byte	0
 7972               		.comm gDriveDir,1,1
 7973               		.comm gDriveSpeed,1,1
 7974               		.comm gDriveLimit,1,1
 7975               		.comm gDriveSpeedLeft,2,1
 7976               		.comm gDriveSpeedRight,2,1
 7977               		.comm gDriveError,1,1
 7978               		.comm gDriveLastError,1,1
 7979               		.comm gDriveKP,2,1
 7980               		.comm gDriveKD,2,1
 7981               		.comm gCaseH,50,1
 7982               		.comm gCaseL,50,1
 7983               		.comm gCaseN,1,1
 7984               		.comm gCaseV,50,1
 7985               		.comm gSensAnalog,38,1
 7986               		.comm gSensRef,38,1
 7987               		.comm gSensH,1,1
 7988               		.comm gSensL,1,1
 7989               		.comm gSensA,1,1
 7990               		.comm gState,2,1
 7991               		.comm gScrollNum,1,1
 7992               		.comm gScrollMax,1,1
 8625               	.Letext0:
DEFINED SYMBOLS
                            *ABS*:0000000000000000 main.c
     /tmp/ccZjV9iy.s:2      *ABS*:000000000000003f __SREG__
     /tmp/ccZjV9iy.s:3      *ABS*:000000000000003e __SP_H__
     /tmp/ccZjV9iy.s:4      *ABS*:000000000000003d __SP_L__
     /tmp/ccZjV9iy.s:5      *ABS*:0000000000000034 __CCP__
     /tmp/ccZjV9iy.s:6      *ABS*:0000000000000000 __tmp_reg__
     /tmp/ccZjV9iy.s:7      *ABS*:0000000000000001 __zero_reg__
     /tmp/ccZjV9iy.s:18     .text:0000000000000000 isset
     /tmp/ccZjV9iy.s:52     .text:0000000000000024 isclear
     /tmp/ccZjV9iy.s:90     .text:000000000000004c initpwm
     /tmp/ccZjV9iy.s:110    .text:0000000000000056 initadc
     /tmp/ccZjV9iy.s:132    .text:0000000000000062 adc_baca
     /tmp/ccZjV9iy.s:178    .text:0000000000000080 cetak_bil
     /tmp/ccZjV9iy.s:323    .text:000000000000015a cetak_bil_lgsg
     /tmp/ccZjV9iy.s:450    .text:0000000000000218 lcdhapus
     /tmp/ccZjV9iy.s:496    .text:000000000000023e Button0
     /tmp/ccZjV9iy.s:514    .text:0000000000000248 Button1
     /tmp/ccZjV9iy.s:532    .text:0000000000000252 Button2
     /tmp/ccZjV9iy.s:550    .text:000000000000025c Button3
     /tmp/ccZjV9iy.s:568    .text:0000000000000266 ButtonEnter
     /tmp/ccZjV9iy.s:586    .text:0000000000000270 ButtonBack
     /tmp/ccZjV9iy.s:604    .text:000000000000027a ButtonNext
     /tmp/ccZjV9iy.s:622    .text:0000000000000284 ButtonPrev
     /tmp/ccZjV9iy.s:640    .text:000000000000028e ButtonWait
     /tmp/ccZjV9iy.s:677    .text:00000000000002c0 ButtonIsPressed
     /tmp/ccZjV9iy.s:725    .text:0000000000000302 ButtonIsNotPressed
     /tmp/ccZjV9iy.s:777    .text:000000000000034a ButtonRead
     /tmp/ccZjV9iy.s:845    .text:0000000000000394 SettingDebugPrintlog2
                            *COM*:0000000000000002 gState
     /tmp/ccZjV9iy.s:979    .text:000000000000044e SettingDebugPrintlog
     /tmp/ccZjV9iy.s:1092   .text:00000000000004e6 SensorReadAnalog
                            *COM*:0000000000000026 gSensAnalog
     /tmp/ccZjV9iy.s:1245   .text:0000000000000622 SensorReadDigital
                            *COM*:0000000000000001 gSensH
                            *COM*:0000000000000001 gSensL
                            *COM*:0000000000000001 gSensA
                            *COM*:0000000000000026 gSensRef
     /tmp/ccZjV9iy.s:1375   .text:000000000000070c SensorCalibrate
     /tmp/ccZjV9iy.s:1799   .text:00000000000009e0 Calibrate
     /tmp/ccZjV9iy.s:1815   .text:00000000000009e6 SensorRemap
     /tmp/ccZjV9iy.s:1829   .text:00000000000009e8 SaveCase
                            *COM*:0000000000000001 gCaseN
                            *COM*:0000000000000032 gCaseH
                            *COM*:0000000000000032 gCaseL
                            *COM*:0000000000000032 gCaseV
     /tmp/ccZjV9iy.s:1898   .text:0000000000000a46 LoadCase
     /tmp/ccZjV9iy.s:1968   .text:0000000000000aa4 SetDefault
     /tmp/ccZjV9iy.s:2166   .text:0000000000000c9a Init
     /tmp/ccZjV9iy.s:7961   .bss:0000000000000001 counter
                            *COM*:0000000000000001 gScrollNum
                            *COM*:0000000000000001 gDriveLastError
                            *COM*:0000000000000001 gDriveLimit
                            *COM*:0000000000000001 gDriveSpeed
                            *COM*:0000000000000002 gDriveKP
                            *COM*:0000000000000002 gDriveKD
     /tmp/ccZjV9iy.s:2278   .text:0000000000000d5c SetMinim
     /tmp/ccZjV9iy.s:2386   .text:0000000000000e5e PIDGetError
                            *COM*:0000000000000001 gDriveError
     /tmp/ccZjV9iy.s:2446   .text:0000000000000ea6 DirForward
     /tmp/ccZjV9iy.s:2465   .text:0000000000000eb0 DirBackward
     /tmp/ccZjV9iy.s:2484   .text:0000000000000eba DirTurnLeft
     /tmp/ccZjV9iy.s:2502   .text:0000000000000ec2 DirTurnRight
     /tmp/ccZjV9iy.s:2520   .text:0000000000000eca PIDCalculateExecuteCustom
                            *COM*:0000000000000002 gDriveSpeedLeft
                            *COM*:0000000000000002 gDriveSpeedRight
     /tmp/ccZjV9iy.s:2688   .text:0000000000000fc8 PIDCalculateExecute
     /tmp/ccZjV9iy.s:2850   .text:00000000000010cc RunOnce
     /tmp/ccZjV9iy.s:3019   .text:00000000000011d2 RunC02ke03
     /tmp/ccZjV9iy.s:3079   .text:000000000000123c RunC01ke02
     /tmp/ccZjV9iy.s:3139   .text:00000000000012a6 RunProgram
     /tmp/ccZjV9iy.s:3220   .text:000000000000132e RunWhileNormal
     /tmp/ccZjV9iy.s:3378   .text:0000000000001456 RunLearn
     /tmp/ccZjV9iy.s:3395   .text:000000000000145e Run
     /tmp/ccZjV9iy.s:3577   .text:0000000000001566 RunTestCounter
     /tmp/ccZjV9iy.s:7967   .data:0000000000000227 countermax
     /tmp/ccZjV9iy.s:3844   .text:0000000000001738 RunC03ke04
     /tmp/ccZjV9iy.s:4074   .text:00000000000018ae RunC00ke01
     /tmp/ccZjV9iy.s:4424   .text:0000000000001aba RunEb01ke02
     /tmp/ccZjV9iy.s:4682   .text:0000000000001bdc RunEb00ke01
     /tmp/ccZjV9iy.s:5157   .text:0000000000001df2 RunMapping
     /tmp/ccZjV9iy.s:5248   .text:0000000000001e5e DriveMove
     /tmp/ccZjV9iy.s:5271   .text:0000000000001e6c ProgMapping
     /tmp/ccZjV9iy.s:7948   .bss:0000000000000000 gMazeMapNum
     /tmp/ccZjV9iy.s:7954   .data:0000000000000226 gMazeMapTot
     /tmp/ccZjV9iy.s:5552   .text:000000000000202a MapWriteTurn
     /tmp/ccZjV9iy.s:5595   .text:0000000000002054 MapReadTurn
     /tmp/ccZjV9iy.s:5619   .text:0000000000002062 MapWriteCaseA
     /tmp/ccZjV9iy.s:5672   .text:000000000000209e MapWriteUntilA
     /tmp/ccZjV9iy.s:5724   .text:00000000000020d8 MapReadCaseA
     /tmp/ccZjV9iy.s:5750   .text:00000000000020ea MapReadUntilA
     /tmp/ccZjV9iy.s:5778   .text:00000000000020fc MapWriteTCAUA
     /tmp/ccZjV9iy.s:5800   .text:0000000000002108 MapReadTCAUA
     /tmp/ccZjV9iy.s:5821   .text:0000000000002114 GetCursor
     /tmp/ccZjV9iy.s:5841   .text:000000000000211e GetParent
     /tmp/ccZjV9iy.s:5862   .text:000000000000212a GetChild
     /tmp/ccZjV9iy.s:5886   .text:000000000000213a ReStrainScroll
                            *COM*:0000000000000001 gScrollMax
     /tmp/ccZjV9iy.s:5920   .text:0000000000002158 PrintScroll
     /tmp/ccZjV9iy.s:6012   .text:00000000000021a2 Menu
     /tmp/ccZjV9iy.s:6445   .text:000000000000241e SettingMenu
     /tmp/ccZjV9iy.s:6766   .text:00000000000025fa SettingErrorMenu
     /tmp/ccZjV9iy.s:6792   .text:00000000000025fc SettingSetPIDSpeedMenu
     /tmp/ccZjV9iy.s:7082   .text:000000000000279a SettingSetPIDSpeedSpeed
     /tmp/ccZjV9iy.s:7192   .text:0000000000002826 SettingSetPIDSpeedKP
     /tmp/ccZjV9iy.s:7301   .text:00000000000028b6 SettingSetPIDSpeedKD
     /tmp/ccZjV9iy.s:7414   .text:0000000000002946 SettingDebugMenu
     /tmp/ccZjV9iy.s:7636   .text:0000000000002a8a SettingDebugSensor
     /tmp/ccZjV9iy.s:7762   .text:0000000000002b5c main
                            *COM*:0000000000000001 gDriveDir

UNDEFINED SYMBOLS
LCDGotoXY
LCDstring
snprintf
LCDclr
__eeupd_byte_m32
__eewr_byte_m32
__eerd_byte_m32
LCDinit
__udivmodhi4
__do_copy_data
__do_clear_bss
